
engine:     file format elf64-x86-64


Disassembly of section .init:

0000000000002000 <_init>:
    2000:	f3 0f 1e fa          	endbr64 
    2004:	48 83 ec 08          	sub    rsp,0x8
    2008:	48 8b 05 d9 6f 00 00 	mov    rax,QWORD PTR [rip+0x6fd9]        # 8fe8 <__gmon_start__>
    200f:	48 85 c0             	test   rax,rax
    2012:	74 02                	je     2016 <_init+0x16>
    2014:	ff d0                	call   rax
    2016:	48 83 c4 08          	add    rsp,0x8
    201a:	c3                   	ret    

Disassembly of section .plt:

0000000000002020 <.plt>:
    2020:	ff 35 4a 6e 00 00    	push   QWORD PTR [rip+0x6e4a]        # 8e70 <_GLOBAL_OFFSET_TABLE_+0x8>
    2026:	f2 ff 25 4b 6e 00 00 	bnd jmp QWORD PTR [rip+0x6e4b]        # 8e78 <_GLOBAL_OFFSET_TABLE_+0x10>
    202d:	0f 1f 00             	nop    DWORD PTR [rax]
    2030:	f3 0f 1e fa          	endbr64 
    2034:	68 00 00 00 00       	push   0x0
    2039:	f2 e9 e1 ff ff ff    	bnd jmp 2020 <.plt>
    203f:	90                   	nop
    2040:	f3 0f 1e fa          	endbr64 
    2044:	68 01 00 00 00       	push   0x1
    2049:	f2 e9 d1 ff ff ff    	bnd jmp 2020 <.plt>
    204f:	90                   	nop
    2050:	f3 0f 1e fa          	endbr64 
    2054:	68 02 00 00 00       	push   0x2
    2059:	f2 e9 c1 ff ff ff    	bnd jmp 2020 <.plt>
    205f:	90                   	nop
    2060:	f3 0f 1e fa          	endbr64 
    2064:	68 03 00 00 00       	push   0x3
    2069:	f2 e9 b1 ff ff ff    	bnd jmp 2020 <.plt>
    206f:	90                   	nop
    2070:	f3 0f 1e fa          	endbr64 
    2074:	68 04 00 00 00       	push   0x4
    2079:	f2 e9 a1 ff ff ff    	bnd jmp 2020 <.plt>
    207f:	90                   	nop
    2080:	f3 0f 1e fa          	endbr64 
    2084:	68 05 00 00 00       	push   0x5
    2089:	f2 e9 91 ff ff ff    	bnd jmp 2020 <.plt>
    208f:	90                   	nop
    2090:	f3 0f 1e fa          	endbr64 
    2094:	68 06 00 00 00       	push   0x6
    2099:	f2 e9 81 ff ff ff    	bnd jmp 2020 <.plt>
    209f:	90                   	nop
    20a0:	f3 0f 1e fa          	endbr64 
    20a4:	68 07 00 00 00       	push   0x7
    20a9:	f2 e9 71 ff ff ff    	bnd jmp 2020 <.plt>
    20af:	90                   	nop
    20b0:	f3 0f 1e fa          	endbr64 
    20b4:	68 08 00 00 00       	push   0x8
    20b9:	f2 e9 61 ff ff ff    	bnd jmp 2020 <.plt>
    20bf:	90                   	nop
    20c0:	f3 0f 1e fa          	endbr64 
    20c4:	68 09 00 00 00       	push   0x9
    20c9:	f2 e9 51 ff ff ff    	bnd jmp 2020 <.plt>
    20cf:	90                   	nop
    20d0:	f3 0f 1e fa          	endbr64 
    20d4:	68 0a 00 00 00       	push   0xa
    20d9:	f2 e9 41 ff ff ff    	bnd jmp 2020 <.plt>
    20df:	90                   	nop
    20e0:	f3 0f 1e fa          	endbr64 
    20e4:	68 0b 00 00 00       	push   0xb
    20e9:	f2 e9 31 ff ff ff    	bnd jmp 2020 <.plt>
    20ef:	90                   	nop
    20f0:	f3 0f 1e fa          	endbr64 
    20f4:	68 0c 00 00 00       	push   0xc
    20f9:	f2 e9 21 ff ff ff    	bnd jmp 2020 <.plt>
    20ff:	90                   	nop
    2100:	f3 0f 1e fa          	endbr64 
    2104:	68 0d 00 00 00       	push   0xd
    2109:	f2 e9 11 ff ff ff    	bnd jmp 2020 <.plt>
    210f:	90                   	nop
    2110:	f3 0f 1e fa          	endbr64 
    2114:	68 0e 00 00 00       	push   0xe
    2119:	f2 e9 01 ff ff ff    	bnd jmp 2020 <.plt>
    211f:	90                   	nop
    2120:	f3 0f 1e fa          	endbr64 
    2124:	68 0f 00 00 00       	push   0xf
    2129:	f2 e9 f1 fe ff ff    	bnd jmp 2020 <.plt>
    212f:	90                   	nop
    2130:	f3 0f 1e fa          	endbr64 
    2134:	68 10 00 00 00       	push   0x10
    2139:	f2 e9 e1 fe ff ff    	bnd jmp 2020 <.plt>
    213f:	90                   	nop
    2140:	f3 0f 1e fa          	endbr64 
    2144:	68 11 00 00 00       	push   0x11
    2149:	f2 e9 d1 fe ff ff    	bnd jmp 2020 <.plt>
    214f:	90                   	nop
    2150:	f3 0f 1e fa          	endbr64 
    2154:	68 12 00 00 00       	push   0x12
    2159:	f2 e9 c1 fe ff ff    	bnd jmp 2020 <.plt>
    215f:	90                   	nop
    2160:	f3 0f 1e fa          	endbr64 
    2164:	68 13 00 00 00       	push   0x13
    2169:	f2 e9 b1 fe ff ff    	bnd jmp 2020 <.plt>
    216f:	90                   	nop
    2170:	f3 0f 1e fa          	endbr64 
    2174:	68 14 00 00 00       	push   0x14
    2179:	f2 e9 a1 fe ff ff    	bnd jmp 2020 <.plt>
    217f:	90                   	nop
    2180:	f3 0f 1e fa          	endbr64 
    2184:	68 15 00 00 00       	push   0x15
    2189:	f2 e9 91 fe ff ff    	bnd jmp 2020 <.plt>
    218f:	90                   	nop
    2190:	f3 0f 1e fa          	endbr64 
    2194:	68 16 00 00 00       	push   0x16
    2199:	f2 e9 81 fe ff ff    	bnd jmp 2020 <.plt>
    219f:	90                   	nop
    21a0:	f3 0f 1e fa          	endbr64 
    21a4:	68 17 00 00 00       	push   0x17
    21a9:	f2 e9 71 fe ff ff    	bnd jmp 2020 <.plt>
    21af:	90                   	nop
    21b0:	f3 0f 1e fa          	endbr64 
    21b4:	68 18 00 00 00       	push   0x18
    21b9:	f2 e9 61 fe ff ff    	bnd jmp 2020 <.plt>
    21bf:	90                   	nop
    21c0:	f3 0f 1e fa          	endbr64 
    21c4:	68 19 00 00 00       	push   0x19
    21c9:	f2 e9 51 fe ff ff    	bnd jmp 2020 <.plt>
    21cf:	90                   	nop
    21d0:	f3 0f 1e fa          	endbr64 
    21d4:	68 1a 00 00 00       	push   0x1a
    21d9:	f2 e9 41 fe ff ff    	bnd jmp 2020 <.plt>
    21df:	90                   	nop
    21e0:	f3 0f 1e fa          	endbr64 
    21e4:	68 1b 00 00 00       	push   0x1b
    21e9:	f2 e9 31 fe ff ff    	bnd jmp 2020 <.plt>
    21ef:	90                   	nop
    21f0:	f3 0f 1e fa          	endbr64 
    21f4:	68 1c 00 00 00       	push   0x1c
    21f9:	f2 e9 21 fe ff ff    	bnd jmp 2020 <.plt>
    21ff:	90                   	nop
    2200:	f3 0f 1e fa          	endbr64 
    2204:	68 1d 00 00 00       	push   0x1d
    2209:	f2 e9 11 fe ff ff    	bnd jmp 2020 <.plt>
    220f:	90                   	nop
    2210:	f3 0f 1e fa          	endbr64 
    2214:	68 1e 00 00 00       	push   0x1e
    2219:	f2 e9 01 fe ff ff    	bnd jmp 2020 <.plt>
    221f:	90                   	nop
    2220:	f3 0f 1e fa          	endbr64 
    2224:	68 1f 00 00 00       	push   0x1f
    2229:	f2 e9 f1 fd ff ff    	bnd jmp 2020 <.plt>
    222f:	90                   	nop
    2230:	f3 0f 1e fa          	endbr64 
    2234:	68 20 00 00 00       	push   0x20
    2239:	f2 e9 e1 fd ff ff    	bnd jmp 2020 <.plt>
    223f:	90                   	nop
    2240:	f3 0f 1e fa          	endbr64 
    2244:	68 21 00 00 00       	push   0x21
    2249:	f2 e9 d1 fd ff ff    	bnd jmp 2020 <.plt>
    224f:	90                   	nop
    2250:	f3 0f 1e fa          	endbr64 
    2254:	68 22 00 00 00       	push   0x22
    2259:	f2 e9 c1 fd ff ff    	bnd jmp 2020 <.plt>
    225f:	90                   	nop
    2260:	f3 0f 1e fa          	endbr64 
    2264:	68 23 00 00 00       	push   0x23
    2269:	f2 e9 b1 fd ff ff    	bnd jmp 2020 <.plt>
    226f:	90                   	nop
    2270:	f3 0f 1e fa          	endbr64 
    2274:	68 24 00 00 00       	push   0x24
    2279:	f2 e9 a1 fd ff ff    	bnd jmp 2020 <.plt>
    227f:	90                   	nop
    2280:	f3 0f 1e fa          	endbr64 
    2284:	68 25 00 00 00       	push   0x25
    2289:	f2 e9 91 fd ff ff    	bnd jmp 2020 <.plt>
    228f:	90                   	nop
    2290:	f3 0f 1e fa          	endbr64 
    2294:	68 26 00 00 00       	push   0x26
    2299:	f2 e9 81 fd ff ff    	bnd jmp 2020 <.plt>
    229f:	90                   	nop
    22a0:	f3 0f 1e fa          	endbr64 
    22a4:	68 27 00 00 00       	push   0x27
    22a9:	f2 e9 71 fd ff ff    	bnd jmp 2020 <.plt>
    22af:	90                   	nop
    22b0:	f3 0f 1e fa          	endbr64 
    22b4:	68 28 00 00 00       	push   0x28
    22b9:	f2 e9 61 fd ff ff    	bnd jmp 2020 <.plt>
    22bf:	90                   	nop
    22c0:	f3 0f 1e fa          	endbr64 
    22c4:	68 29 00 00 00       	push   0x29
    22c9:	f2 e9 51 fd ff ff    	bnd jmp 2020 <.plt>
    22cf:	90                   	nop

Disassembly of section .plt.got:

00000000000022d0 <__cxa_finalize@plt>:
    22d0:	f3 0f 1e fa          	endbr64 
    22d4:	f2 ff 25 f5 6c 00 00 	bnd jmp QWORD PTR [rip+0x6cf5]        # 8fd0 <__cxa_finalize@GLIBC_2.2.5>
    22db:	0f 1f 44 00 00       	nop    DWORD PTR [rax+rax*1+0x0]

Disassembly of section .plt.sec:

00000000000022e0 <_ZNSo3putEc@plt>:
    22e0:	f3 0f 1e fa          	endbr64 
    22e4:	f2 ff 25 95 6b 00 00 	bnd jmp QWORD PTR [rip+0x6b95]        # 8e80 <_ZNSo3putEc@GLIBCXX_3.4>
    22eb:	0f 1f 44 00 00       	nop    DWORD PTR [rax+rax*1+0x0]

00000000000022f0 <_ZNSt13basic_filebufIcSt11char_traitsIcEE5closeEv@plt>:
    22f0:	f3 0f 1e fa          	endbr64 
    22f4:	f2 ff 25 8d 6b 00 00 	bnd jmp QWORD PTR [rip+0x6b8d]        # 8e88 <_ZNSt13basic_filebufIcSt11char_traitsIcEE5closeEv@GLIBCXX_3.4>
    22fb:	0f 1f 44 00 00       	nop    DWORD PTR [rax+rax*1+0x0]

0000000000002300 <_ZNSt14basic_ifstreamIcSt11char_traitsIcEED1Ev@plt>:
    2300:	f3 0f 1e fa          	endbr64 
    2304:	f2 ff 25 85 6b 00 00 	bnd jmp QWORD PTR [rip+0x6b85]        # 8e90 <_ZNSt14basic_ifstreamIcSt11char_traitsIcEED1Ev@GLIBCXX_3.4>
    230b:	0f 1f 44 00 00       	nop    DWORD PTR [rax+rax*1+0x0]

0000000000002310 <_ZNKSt7__cxx1112basic_stringIcSt11char_traitsIcESaIcEE7compareEPKc@plt>:
    2310:	f3 0f 1e fa          	endbr64 
    2314:	f2 ff 25 7d 6b 00 00 	bnd jmp QWORD PTR [rip+0x6b7d]        # 8e98 <_ZNKSt7__cxx1112basic_stringIcSt11char_traitsIcESaIcEE7compareEPKc@GLIBCXX_3.4.21>
    231b:	0f 1f 44 00 00       	nop    DWORD PTR [rax+rax*1+0x0]

0000000000002320 <_ZNSt8ios_baseC2Ev@plt>:
    2320:	f3 0f 1e fa          	endbr64 
    2324:	f2 ff 25 75 6b 00 00 	bnd jmp QWORD PTR [rip+0x6b75]        # 8ea0 <_ZNSt8ios_baseC2Ev@GLIBCXX_3.4>
    232b:	0f 1f 44 00 00       	nop    DWORD PTR [rax+rax*1+0x0]

0000000000002330 <_ZNSt7__cxx1112basic_stringIcSt11char_traitsIcESaIcEE9_M_appendEPKcm@plt>:
    2330:	f3 0f 1e fa          	endbr64 
    2334:	f2 ff 25 6d 6b 00 00 	bnd jmp QWORD PTR [rip+0x6b6d]        # 8ea8 <_ZNSt7__cxx1112basic_stringIcSt11char_traitsIcESaIcEE9_M_appendEPKcm@GLIBCXX_3.4.21>
    233b:	0f 1f 44 00 00       	nop    DWORD PTR [rax+rax*1+0x0]

0000000000002340 <_ZNSt8ios_baseD2Ev@plt>:
    2340:	f3 0f 1e fa          	endbr64 
    2344:	f2 ff 25 65 6b 00 00 	bnd jmp QWORD PTR [rip+0x6b65]        # 8eb0 <_ZNSt8ios_baseD2Ev@GLIBCXX_3.4>
    234b:	0f 1f 44 00 00       	nop    DWORD PTR [rax+rax*1+0x0]

0000000000002350 <__cxa_begin_catch@plt>:
    2350:	f3 0f 1e fa          	endbr64 
    2354:	f2 ff 25 5d 6b 00 00 	bnd jmp QWORD PTR [rip+0x6b5d]        # 8eb8 <__cxa_begin_catch@CXXABI_1.3>
    235b:	0f 1f 44 00 00       	nop    DWORD PTR [rax+rax*1+0x0]

0000000000002360 <_ZNSt7__cxx1119basic_istringstreamIcSt11char_traitsIcESaIcEED1Ev@plt>:
    2360:	f3 0f 1e fa          	endbr64 
    2364:	f2 ff 25 55 6b 00 00 	bnd jmp QWORD PTR [rip+0x6b55]        # 8ec0 <_ZNSt7__cxx1119basic_istringstreamIcSt11char_traitsIcESaIcEED1Ev@GLIBCXX_3.4.21>
    236b:	0f 1f 44 00 00       	nop    DWORD PTR [rax+rax*1+0x0]

0000000000002370 <_ZSt4endlIcSt11char_traitsIcEERSt13basic_ostreamIT_T0_ES6_@plt>:
    2370:	f3 0f 1e fa          	endbr64 
    2374:	f2 ff 25 4d 6b 00 00 	bnd jmp QWORD PTR [rip+0x6b4d]        # 8ec8 <_ZSt4endlIcSt11char_traitsIcEERSt13basic_ostreamIT_T0_ES6_@GLIBCXX_3.4>
    237b:	0f 1f 44 00 00       	nop    DWORD PTR [rax+rax*1+0x0]

0000000000002380 <_ZSt20__throw_length_errorPKc@plt>:
    2380:	f3 0f 1e fa          	endbr64 
    2384:	f2 ff 25 45 6b 00 00 	bnd jmp QWORD PTR [rip+0x6b45]        # 8ed0 <_ZSt20__throw_length_errorPKc@GLIBCXX_3.4>
    238b:	0f 1f 44 00 00       	nop    DWORD PTR [rax+rax*1+0x0]

0000000000002390 <_ZNSo9_M_insertImEERSoT_@plt>:
    2390:	f3 0f 1e fa          	endbr64 
    2394:	f2 ff 25 3d 6b 00 00 	bnd jmp QWORD PTR [rip+0x6b3d]        # 8ed8 <_ZNSo9_M_insertImEERSoT_@GLIBCXX_3.4.9>
    239b:	0f 1f 44 00 00       	nop    DWORD PTR [rax+rax*1+0x0]

00000000000023a0 <_ZNSo5flushEv@plt>:
    23a0:	f3 0f 1e fa          	endbr64 
    23a4:	f2 ff 25 35 6b 00 00 	bnd jmp QWORD PTR [rip+0x6b35]        # 8ee0 <_ZNSo5flushEv@GLIBCXX_3.4>
    23ab:	0f 1f 44 00 00       	nop    DWORD PTR [rax+rax*1+0x0]

00000000000023b0 <_ZSt19__throw_logic_errorPKc@plt>:
    23b0:	f3 0f 1e fa          	endbr64 
    23b4:	f2 ff 25 2d 6b 00 00 	bnd jmp QWORD PTR [rip+0x6b2d]        # 8ee8 <_ZSt19__throw_logic_errorPKc@GLIBCXX_3.4>
    23bb:	0f 1f 44 00 00       	nop    DWORD PTR [rax+rax*1+0x0]

00000000000023c0 <isupper@plt>:
    23c0:	f3 0f 1e fa          	endbr64 
    23c4:	f2 ff 25 25 6b 00 00 	bnd jmp QWORD PTR [rip+0x6b25]        # 8ef0 <isupper@GLIBC_2.2.5>
    23cb:	0f 1f 44 00 00       	nop    DWORD PTR [rax+rax*1+0x0]

00000000000023d0 <memcpy@plt>:
    23d0:	f3 0f 1e fa          	endbr64 
    23d4:	f2 ff 25 1d 6b 00 00 	bnd jmp QWORD PTR [rip+0x6b1d]        # 8ef8 <memcpy@GLIBC_2.14>
    23db:	0f 1f 44 00 00       	nop    DWORD PTR [rax+rax*1+0x0]

00000000000023e0 <__cxa_atexit@plt>:
    23e0:	f3 0f 1e fa          	endbr64 
    23e4:	f2 ff 25 15 6b 00 00 	bnd jmp QWORD PTR [rip+0x6b15]        # 8f00 <__cxa_atexit@GLIBC_2.2.5>
    23eb:	0f 1f 44 00 00       	nop    DWORD PTR [rax+rax*1+0x0]

00000000000023f0 <_ZNSt13basic_filebufIcSt11char_traitsIcEE4openEPKcSt13_Ios_Openmode@plt>:
    23f0:	f3 0f 1e fa          	endbr64 
    23f4:	f2 ff 25 0d 6b 00 00 	bnd jmp QWORD PTR [rip+0x6b0d]        # 8f08 <_ZNSt13basic_filebufIcSt11char_traitsIcEE4openEPKcSt13_Ios_Openmode@GLIBCXX_3.4>
    23fb:	0f 1f 44 00 00       	nop    DWORD PTR [rax+rax*1+0x0]

0000000000002400 <_ZdlPv@plt>:
    2400:	f3 0f 1e fa          	endbr64 
    2404:	f2 ff 25 05 6b 00 00 	bnd jmp QWORD PTR [rip+0x6b05]        # 8f10 <_ZdlPv@GLIBCXX_3.4>
    240b:	0f 1f 44 00 00       	nop    DWORD PTR [rax+rax*1+0x0]

0000000000002410 <_Znwm@plt>:
    2410:	f3 0f 1e fa          	endbr64 
    2414:	f2 ff 25 fd 6a 00 00 	bnd jmp QWORD PTR [rip+0x6afd]        # 8f18 <_Znwm@GLIBCXX_3.4>
    241b:	0f 1f 44 00 00       	nop    DWORD PTR [rax+rax*1+0x0]

0000000000002420 <_ZNSt13basic_filebufIcSt11char_traitsIcEEC1Ev@plt>:
    2420:	f3 0f 1e fa          	endbr64 
    2424:	f2 ff 25 f5 6a 00 00 	bnd jmp QWORD PTR [rip+0x6af5]        # 8f20 <_ZNSt13basic_filebufIcSt11char_traitsIcEEC1Ev@GLIBCXX_3.4>
    242b:	0f 1f 44 00 00       	nop    DWORD PTR [rax+rax*1+0x0]

0000000000002430 <__stack_chk_fail@plt>:
    2430:	f3 0f 1e fa          	endbr64 
    2434:	f2 ff 25 ed 6a 00 00 	bnd jmp QWORD PTR [rip+0x6aed]        # 8f28 <__stack_chk_fail@GLIBC_2.4>
    243b:	0f 1f 44 00 00       	nop    DWORD PTR [rax+rax*1+0x0]

0000000000002440 <_ZSt16__ostream_insertIcSt11char_traitsIcEERSt13basic_ostreamIT_T0_ES6_PKS3_l@plt>:
    2440:	f3 0f 1e fa          	endbr64 
    2444:	f2 ff 25 e5 6a 00 00 	bnd jmp QWORD PTR [rip+0x6ae5]        # 8f30 <_ZSt16__ostream_insertIcSt11char_traitsIcEERSt13basic_ostreamIT_T0_ES6_PKS3_l@GLIBCXX_3.4.9>
    244b:	0f 1f 44 00 00       	nop    DWORD PTR [rax+rax*1+0x0]

0000000000002450 <_ZNKSt5ctypeIcE13_M_widen_initEv@plt>:
    2450:	f3 0f 1e fa          	endbr64 
    2454:	f2 ff 25 dd 6a 00 00 	bnd jmp QWORD PTR [rip+0x6add]        # 8f38 <_ZNKSt5ctypeIcE13_M_widen_initEv@GLIBCXX_3.4.11>
    245b:	0f 1f 44 00 00       	nop    DWORD PTR [rax+rax*1+0x0]

0000000000002460 <_ZNSi4readEPcl@plt>:
    2460:	f3 0f 1e fa          	endbr64 
    2464:	f2 ff 25 d5 6a 00 00 	bnd jmp QWORD PTR [rip+0x6ad5]        # 8f40 <_ZNSi4readEPcl@GLIBCXX_3.4>
    246b:	0f 1f 44 00 00       	nop    DWORD PTR [rax+rax*1+0x0]

0000000000002470 <_ZSt16__throw_bad_castv@plt>:
    2470:	f3 0f 1e fa          	endbr64 
    2474:	f2 ff 25 cd 6a 00 00 	bnd jmp QWORD PTR [rip+0x6acd]        # 8f48 <_ZSt16__throw_bad_castv@GLIBCXX_3.4>
    247b:	0f 1f 44 00 00       	nop    DWORD PTR [rax+rax*1+0x0]

0000000000002480 <_ZStrsIcSt11char_traitsIcESaIcEERSt13basic_istreamIT_T0_ES7_RNSt7__cxx1112basic_stringIS4_S5_T1_EE@plt>:
    2480:	f3 0f 1e fa          	endbr64 
    2484:	f2 ff 25 c5 6a 00 00 	bnd jmp QWORD PTR [rip+0x6ac5]        # 8f50 <_ZStrsIcSt11char_traitsIcESaIcEERSt13basic_istreamIT_T0_ES7_RNSt7__cxx1112basic_stringIS4_S5_T1_EE@GLIBCXX_3.4.21>
    248b:	0f 1f 44 00 00       	nop    DWORD PTR [rax+rax*1+0x0]

0000000000002490 <_ZNSt7__cxx1115basic_stringbufIcSt11char_traitsIcESaIcEE7_M_syncEPcmm@plt>:
    2490:	f3 0f 1e fa          	endbr64 
    2494:	f2 ff 25 bd 6a 00 00 	bnd jmp QWORD PTR [rip+0x6abd]        # 8f58 <_ZNSt7__cxx1115basic_stringbufIcSt11char_traitsIcESaIcEE7_M_syncEPcmm@GLIBCXX_3.4.21>
    249b:	0f 1f 44 00 00       	nop    DWORD PTR [rax+rax*1+0x0]

00000000000024a0 <_ZNSt9basic_iosIcSt11char_traitsIcEE4initEPSt15basic_streambufIcS1_E@plt>:
    24a0:	f3 0f 1e fa          	endbr64 
    24a4:	f2 ff 25 b5 6a 00 00 	bnd jmp QWORD PTR [rip+0x6ab5]        # 8f60 <_ZNSt9basic_iosIcSt11char_traitsIcEE4initEPSt15basic_streambufIcS1_E@GLIBCXX_3.4>
    24ab:	0f 1f 44 00 00       	nop    DWORD PTR [rax+rax*1+0x0]

00000000000024b0 <_ZNSt6localeD1Ev@plt>:
    24b0:	f3 0f 1e fa          	endbr64 
    24b4:	f2 ff 25 ad 6a 00 00 	bnd jmp QWORD PTR [rip+0x6aad]        # 8f68 <_ZNSt6localeD1Ev@GLIBCXX_3.4>
    24bb:	0f 1f 44 00 00       	nop    DWORD PTR [rax+rax*1+0x0]

00000000000024c0 <tolower@plt>:
    24c0:	f3 0f 1e fa          	endbr64 
    24c4:	f2 ff 25 a5 6a 00 00 	bnd jmp QWORD PTR [rip+0x6aa5]        # 8f70 <tolower@GLIBC_2.2.5>
    24cb:	0f 1f 44 00 00       	nop    DWORD PTR [rax+rax*1+0x0]

00000000000024d0 <_ZNSt8ios_base4InitC1Ev@plt>:
    24d0:	f3 0f 1e fa          	endbr64 
    24d4:	f2 ff 25 9d 6a 00 00 	bnd jmp QWORD PTR [rip+0x6a9d]        # 8f78 <_ZNSt8ios_base4InitC1Ev@GLIBCXX_3.4>
    24db:	0f 1f 44 00 00       	nop    DWORD PTR [rax+rax*1+0x0]

00000000000024e0 <_ZNSt13basic_filebufIcSt11char_traitsIcEED1Ev@plt>:
    24e0:	f3 0f 1e fa          	endbr64 
    24e4:	f2 ff 25 95 6a 00 00 	bnd jmp QWORD PTR [rip+0x6a95]        # 8f80 <_ZNSt13basic_filebufIcSt11char_traitsIcEED1Ev@GLIBCXX_3.4>
    24eb:	0f 1f 44 00 00       	nop    DWORD PTR [rax+rax*1+0x0]

00000000000024f0 <__cxa_end_catch@plt>:
    24f0:	f3 0f 1e fa          	endbr64 
    24f4:	f2 ff 25 8d 6a 00 00 	bnd jmp QWORD PTR [rip+0x6a8d]        # 8f88 <__cxa_end_catch@CXXABI_1.3>
    24fb:	0f 1f 44 00 00       	nop    DWORD PTR [rax+rax*1+0x0]

0000000000002500 <_ZNSo9_M_insertIbEERSoT_@plt>:
    2500:	f3 0f 1e fa          	endbr64 
    2504:	f2 ff 25 85 6a 00 00 	bnd jmp QWORD PTR [rip+0x6a85]        # 8f90 <_ZNSo9_M_insertIbEERSoT_@GLIBCXX_3.4.9>
    250b:	0f 1f 44 00 00       	nop    DWORD PTR [rax+rax*1+0x0]

0000000000002510 <_ZNSt9basic_iosIcSt11char_traitsIcEE5clearESt12_Ios_Iostate@plt>:
    2510:	f3 0f 1e fa          	endbr64 
    2514:	f2 ff 25 7d 6a 00 00 	bnd jmp QWORD PTR [rip+0x6a7d]        # 8f98 <_ZNSt9basic_iosIcSt11char_traitsIcEE5clearESt12_Ios_Iostate@GLIBCXX_3.4>
    251b:	0f 1f 44 00 00       	nop    DWORD PTR [rax+rax*1+0x0]

0000000000002520 <_ZNSolsEi@plt>:
    2520:	f3 0f 1e fa          	endbr64 
    2524:	f2 ff 25 75 6a 00 00 	bnd jmp QWORD PTR [rip+0x6a75]        # 8fa0 <_ZNSolsEi@GLIBCXX_3.4>
    252b:	0f 1f 44 00 00       	nop    DWORD PTR [rax+rax*1+0x0]

0000000000002530 <_Unwind_Resume@plt>:
    2530:	f3 0f 1e fa          	endbr64 
    2534:	f2 ff 25 6d 6a 00 00 	bnd jmp QWORD PTR [rip+0x6a6d]        # 8fa8 <_Unwind_Resume@GCC_3.0>
    253b:	0f 1f 44 00 00       	nop    DWORD PTR [rax+rax*1+0x0]

0000000000002540 <_ZNSt7__cxx1112basic_stringIcSt11char_traitsIcESaIcEE9_M_createERmm@plt>:
    2540:	f3 0f 1e fa          	endbr64 
    2544:	f2 ff 25 65 6a 00 00 	bnd jmp QWORD PTR [rip+0x6a65]        # 8fb0 <_ZNSt7__cxx1112basic_stringIcSt11char_traitsIcESaIcEE9_M_createERmm@GLIBCXX_3.4.21>
    254b:	0f 1f 44 00 00       	nop    DWORD PTR [rax+rax*1+0x0]

0000000000002550 <_ZNSt7__cxx1112basic_stringIcSt11char_traitsIcESaIcEE9_M_mutateEmmPKcm@plt>:
    2550:	f3 0f 1e fa          	endbr64 
    2554:	f2 ff 25 5d 6a 00 00 	bnd jmp QWORD PTR [rip+0x6a5d]        # 8fb8 <_ZNSt7__cxx1112basic_stringIcSt11char_traitsIcESaIcEE9_M_mutateEmmPKcm@GLIBCXX_3.4.21>
    255b:	0f 1f 44 00 00       	nop    DWORD PTR [rax+rax*1+0x0]

0000000000002560 <_ZNSt12__basic_fileIcED1Ev@plt>:
    2560:	f3 0f 1e fa          	endbr64 
    2564:	f2 ff 25 55 6a 00 00 	bnd jmp QWORD PTR [rip+0x6a55]        # 8fc0 <_ZNSt12__basic_fileIcED1Ev@GLIBCXX_3.4>
    256b:	0f 1f 44 00 00       	nop    DWORD PTR [rax+rax*1+0x0]

0000000000002570 <_ZNSt6localeC1Ev@plt>:
    2570:	f3 0f 1e fa          	endbr64 
    2574:	f2 ff 25 4d 6a 00 00 	bnd jmp QWORD PTR [rip+0x6a4d]        # 8fc8 <_ZNSt6localeC1Ev@GLIBCXX_3.4>
    257b:	0f 1f 44 00 00       	nop    DWORD PTR [rax+rax*1+0x0]

Disassembly of section .text:

0000000000002580 <main.cold>:
    2580:	48 8b 7c 24 20       	mov    rdi,QWORD PTR [rsp+0x20]
    2585:	48 8d 44 24 30       	lea    rax,[rsp+0x30]
    258a:	48 39 c7             	cmp    rdi,rax
    258d:	74 3b                	je     25ca <main.cold+0x4a>
    258f:	c5 f8 77             	vzeroupper 
    2592:	e8 69 fe ff ff       	call   2400 <_ZdlPv@plt>
    2597:	48 8b 3c 24          	mov    rdi,QWORD PTR [rsp]
    259b:	48 85 ff             	test   rdi,rdi
    259e:	74 05                	je     25a5 <main.cold+0x25>
    25a0:	e8 5b fe ff ff       	call   2400 <_ZdlPv@plt>
    25a5:	48 89 ef             	mov    rdi,rbp
    25a8:	e8 83 ff ff ff       	call   2530 <_Unwind_Resume@plt>
    25ad:	48 8b bc 24 90 00 00 	mov    rdi,QWORD PTR [rsp+0x90]
    25b4:	00 
    25b5:	48 39 df             	cmp    rdi,rbx
    25b8:	74 15                	je     25cf <main.cold+0x4f>
    25ba:	c5 f8 77             	vzeroupper 
    25bd:	e8 3e fe ff ff       	call   2400 <_ZdlPv@plt>
    25c2:	48 89 ef             	mov    rdi,rbp
    25c5:	e8 66 ff ff ff       	call   2530 <_Unwind_Resume@plt>
    25ca:	c5 f8 77             	vzeroupper 
    25cd:	eb c8                	jmp    2597 <main.cold+0x17>
    25cf:	c5 f8 77             	vzeroupper 
    25d2:	eb ee                	jmp    25c2 <main.cold+0x42>

00000000000025d4 <_ZN8Bitboard12bitboard2strB5cxx11Emic.cold>:
    25d4:	49 8b 3c 24          	mov    rdi,QWORD PTR [r12]
    25d8:	48 39 7c 24 10       	cmp    QWORD PTR [rsp+0x10],rdi
    25dd:	74 10                	je     25ef <_ZN8Bitboard12bitboard2strB5cxx11Emic.cold+0x1b>
    25df:	c5 f8 77             	vzeroupper 
    25e2:	e8 19 fe ff ff       	call   2400 <_ZdlPv@plt>
    25e7:	48 89 ef             	mov    rdi,rbp
    25ea:	e8 41 ff ff ff       	call   2530 <_Unwind_Resume@plt>
    25ef:	c5 f8 77             	vzeroupper 
    25f2:	eb f3                	jmp    25e7 <_ZN8Bitboard12bitboard2strB5cxx11Emic.cold+0x13>

00000000000025f4 <_ZN8Bitboard14chessBoard2strB5cxx11Ev.cold>:
    25f4:	49 8b 3c 24          	mov    rdi,QWORD PTR [r12]
    25f8:	48 39 7c 24 08       	cmp    QWORD PTR [rsp+0x8],rdi
    25fd:	74 10                	je     260f <_ZN8Bitboard14chessBoard2strB5cxx11Ev.cold+0x1b>
    25ff:	c5 f8 77             	vzeroupper 
    2602:	e8 f9 fd ff ff       	call   2400 <_ZdlPv@plt>
    2607:	48 89 ef             	mov    rdi,rbp
    260a:	e8 21 ff ff ff       	call   2530 <_Unwind_Resume@plt>
    260f:	c5 f8 77             	vzeroupper 
    2612:	eb f3                	jmp    2607 <_ZN8Bitboard14chessBoard2strB5cxx11Ev.cold+0x13>

0000000000002614 <_ZN8Bitboard13initConstantsEv.cold>:
    2614:	4c 89 f7             	mov    rdi,r14
    2617:	c5 f8 77             	vzeroupper 
    261a:	e8 c1 fe ff ff       	call   24e0 <_ZNSt13basic_filebufIcSt11char_traitsIcEED1Ev@plt>
    261f:	49 8b 45 e8          	mov    rax,QWORD PTR [r13-0x18]
    2623:	48 8b 3d 9e 65 00 00 	mov    rdi,QWORD PTR [rip+0x659e]        # 8bc8 <_ZTTSt14basic_ifstreamIcSt11char_traitsIcEE@@GLIBCXX_3.4+0x10>
    262a:	4c 89 2c 24          	mov    QWORD PTR [rsp],r13
    262e:	48 89 3c 04          	mov    QWORD PTR [rsp+rax*1],rdi
    2632:	48 c7 44 24 08 00 00 	mov    QWORD PTR [rsp+0x8],0x0
    2639:	00 00 
    263b:	48 8d 05 a6 63 00 00 	lea    rax,[rip+0x63a6]        # 89e8 <_ZTVSt9basic_iosIcSt11char_traitsIcEE@@GLIBCXX_3.4+0x10>
    2642:	4c 89 ff             	mov    rdi,r15
    2645:	48 89 84 24 00 01 00 	mov    QWORD PTR [rsp+0x100],rax
    264c:	00 
    264d:	e8 ee fc ff ff       	call   2340 <_ZNSt8ios_baseD2Ev@plt>
    2652:	48 89 ef             	mov    rdi,rbp
    2655:	e8 d6 fe ff ff       	call   2530 <_Unwind_Resume@plt>
    265a:	48 89 ef             	mov    rdi,rbp
    265d:	c5 f8 77             	vzeroupper 
    2660:	e8 9b fc ff ff       	call   2300 <_ZNSt14basic_ifstreamIcSt11char_traitsIcEED1Ev@plt>
    2665:	4c 89 e7             	mov    rdi,r12
    2668:	e8 c3 fe ff ff       	call   2530 <_Unwind_Resume@plt>
    266d:	c5 f8 77             	vzeroupper 
    2670:	e8 db fc ff ff       	call   2350 <__cxa_begin_catch@plt>
    2675:	e8 76 fe ff ff       	call   24f0 <__cxa_end_catch@plt>
    267a:	e9 fe 1c 00 00       	jmp    437d <_ZN8Bitboard13initConstantsEv+0x27d>
    267f:	90                   	nop

0000000000002680 <_ZN8BitboardC2ENSt7__cxx1112basic_stringIcSt11char_traitsIcESaIcEEE.cold>:
    2680:	48 8d 05 61 65 00 00 	lea    rax,[rip+0x6561]        # 8be8 <_ZTVNSt7__cxx1115basic_stringbufIcSt11char_traitsIcESaIcEEE@@GLIBCXX_3.4.21+0x10>
    2687:	48 89 84 24 c0 00 00 	mov    QWORD PTR [rsp+0xc0],rax
    268e:	00 
    268f:	48 8b bc 24 08 01 00 	mov    rdi,QWORD PTR [rsp+0x108]
    2696:	00 
    2697:	48 3b 7c 24 28       	cmp    rdi,QWORD PTR [rsp+0x28]
    269c:	74 73                	je     2711 <_ZN8BitboardC2ENSt7__cxx1112basic_stringIcSt11char_traitsIcESaIcEEE.cold+0x91>
    269e:	c5 f8 77             	vzeroupper 
    26a1:	e8 5a fd ff ff       	call   2400 <_ZdlPv@plt>
    26a6:	48 8b 7c 24 20       	mov    rdi,QWORD PTR [rsp+0x20]
    26ab:	48 8d 05 a6 63 00 00 	lea    rax,[rip+0x63a6]        # 8a58 <_ZTVSt15basic_streambufIcSt11char_traitsIcEE@@GLIBCXX_3.4+0x10>
    26b2:	48 89 dd             	mov    rbp,rbx
    26b5:	48 89 84 24 c0 00 00 	mov    QWORD PTR [rsp+0xc0],rax
    26bc:	00 
    26bd:	e8 ee fd ff ff       	call   24b0 <_ZNSt6localeD1Ev@plt>
    26c2:	48 8b 05 07 64 00 00 	mov    rax,QWORD PTR [rip+0x6407]        # 8ad0 <_ZTTNSt7__cxx1119basic_istringstreamIcSt11char_traitsIcESaIcEEE@@GLIBCXX_3.4.21+0x8>
    26c9:	48 8b 0d 08 64 00 00 	mov    rcx,QWORD PTR [rip+0x6408]        # 8ad8 <_ZTTNSt7__cxx1119basic_istringstreamIcSt11char_traitsIcESaIcEEE@@GLIBCXX_3.4.21+0x10>
    26d0:	48 89 84 24 b0 00 00 	mov    QWORD PTR [rsp+0xb0],rax
    26d7:	00 
    26d8:	48 8b 40 e8          	mov    rax,QWORD PTR [rax-0x18]
    26dc:	48 89 8c 04 b0 00 00 	mov    QWORD PTR [rsp+rax*1+0xb0],rcx
    26e3:	00 
    26e4:	48 c7 84 24 b8 00 00 	mov    QWORD PTR [rsp+0xb8],0x0
    26eb:	00 00 00 00 00 
    26f0:	48 8b 7c 24 10       	mov    rdi,QWORD PTR [rsp+0x10]
    26f5:	48 8d 05 ec 62 00 00 	lea    rax,[rip+0x62ec]        # 89e8 <_ZTVSt9basic_iosIcSt11char_traitsIcEE@@GLIBCXX_3.4+0x10>
    26fc:	48 89 84 24 28 01 00 	mov    QWORD PTR [rsp+0x128],rax
    2703:	00 
    2704:	e8 37 fc ff ff       	call   2340 <_ZNSt8ios_baseD2Ev@plt>
    2709:	48 89 ef             	mov    rdi,rbp
    270c:	e8 1f fe ff ff       	call   2530 <_Unwind_Resume@plt>
    2711:	c5 f8 77             	vzeroupper 
    2714:	eb 90                	jmp    26a6 <_ZN8BitboardC2ENSt7__cxx1112basic_stringIcSt11char_traitsIcESaIcEEE.cold+0x26>
    2716:	48 8b 7c 24 70       	mov    rdi,QWORD PTR [rsp+0x70]
    271b:	4c 39 f7             	cmp    rdi,r14
    271e:	74 29                	je     2749 <_ZN8BitboardC2ENSt7__cxx1112basic_stringIcSt11char_traitsIcESaIcEEE.cold+0xc9>
    2720:	c5 f8 77             	vzeroupper 
    2723:	e8 d8 fc ff ff       	call   2400 <_ZdlPv@plt>
    2728:	48 8b 7c 24 50       	mov    rdi,QWORD PTR [rsp+0x50]
    272d:	48 3b 7c 24 30       	cmp    rdi,QWORD PTR [rsp+0x30]
    2732:	74 05                	je     2739 <_ZN8BitboardC2ENSt7__cxx1112basic_stringIcSt11char_traitsIcESaIcEEE.cold+0xb9>
    2734:	e8 c7 fc ff ff       	call   2400 <_ZdlPv@plt>
    2739:	48 89 ef             	mov    rdi,rbp
    273c:	e8 1f fc ff ff       	call   2360 <_ZNSt7__cxx1119basic_istringstreamIcSt11char_traitsIcESaIcEED1Ev@plt>
    2741:	4c 89 e7             	mov    rdi,r12
    2744:	e8 e7 fd ff ff       	call   2530 <_Unwind_Resume@plt>
    2749:	c5 f8 77             	vzeroupper 
    274c:	eb da                	jmp    2728 <_ZN8BitboardC2ENSt7__cxx1112basic_stringIcSt11char_traitsIcESaIcEEE.cold+0xa8>

000000000000274e <_ZN8Bitboard10unmakeMoveERK4Move.cold>:
    274e:	48 8b 7c 24 20       	mov    rdi,QWORD PTR [rsp+0x20]
    2753:	4c 39 e7             	cmp    rdi,r12
    2756:	74 2a                	je     2782 <_ZN8Bitboard10unmakeMoveERK4Move.cold+0x34>
    2758:	c5 f8 77             	vzeroupper 
    275b:	e8 a0 fc ff ff       	call   2400 <_ZdlPv@plt>
    2760:	48 89 ef             	mov    rdi,rbp
    2763:	e8 c8 fd ff ff       	call   2530 <_Unwind_Resume@plt>
    2768:	48 8b 7c 24 20       	mov    rdi,QWORD PTR [rsp+0x20]
    276d:	4c 39 e7             	cmp    rdi,r12
    2770:	74 4e                	je     27c0 <_ZN8Bitboard10unmakeMoveERK4Move.cold+0x72>
    2772:	c5 f8 77             	vzeroupper 
    2775:	e8 86 fc ff ff       	call   2400 <_ZdlPv@plt>
    277a:	48 89 ef             	mov    rdi,rbp
    277d:	e8 ae fd ff ff       	call   2530 <_Unwind_Resume@plt>
    2782:	c5 f8 77             	vzeroupper 
    2785:	eb d9                	jmp    2760 <_ZN8Bitboard10unmakeMoveERK4Move.cold+0x12>
    2787:	48 8b 7c 24 20       	mov    rdi,QWORD PTR [rsp+0x20]
    278c:	4c 39 e7             	cmp    rdi,r12
    278f:	74 2a                	je     27bb <_ZN8Bitboard10unmakeMoveERK4Move.cold+0x6d>
    2791:	c5 f8 77             	vzeroupper 
    2794:	e8 67 fc ff ff       	call   2400 <_ZdlPv@plt>
    2799:	48 89 ef             	mov    rdi,rbp
    279c:	e8 8f fd ff ff       	call   2530 <_Unwind_Resume@plt>
    27a1:	48 8b 7c 24 20       	mov    rdi,QWORD PTR [rsp+0x20]
    27a6:	4c 39 e7             	cmp    rdi,r12
    27a9:	74 1a                	je     27c5 <_ZN8Bitboard10unmakeMoveERK4Move.cold+0x77>
    27ab:	c5 f8 77             	vzeroupper 
    27ae:	e8 4d fc ff ff       	call   2400 <_ZdlPv@plt>
    27b3:	48 89 ef             	mov    rdi,rbp
    27b6:	e8 75 fd ff ff       	call   2530 <_Unwind_Resume@plt>
    27bb:	c5 f8 77             	vzeroupper 
    27be:	eb d9                	jmp    2799 <_ZN8Bitboard10unmakeMoveERK4Move.cold+0x4b>
    27c0:	c5 f8 77             	vzeroupper 
    27c3:	eb b5                	jmp    277a <_ZN8Bitboard10unmakeMoveERK4Move.cold+0x2c>
    27c5:	c5 f8 77             	vzeroupper 
    27c8:	eb e9                	jmp    27b3 <_ZN8Bitboard10unmakeMoveERK4Move.cold+0x65>

00000000000027ca <_ZN8Bitboard8makeMoveERK4Move.cold>:
    27ca:	48 8b 7c 24 20       	mov    rdi,QWORD PTR [rsp+0x20]
    27cf:	4c 39 e7             	cmp    rdi,r12
    27d2:	74 2a                	je     27fe <_ZN8Bitboard8makeMoveERK4Move.cold+0x34>
    27d4:	c5 f8 77             	vzeroupper 
    27d7:	e8 24 fc ff ff       	call   2400 <_ZdlPv@plt>
    27dc:	48 89 ef             	mov    rdi,rbp
    27df:	e8 4c fd ff ff       	call   2530 <_Unwind_Resume@plt>
    27e4:	48 8b 7c 24 20       	mov    rdi,QWORD PTR [rsp+0x20]
    27e9:	4c 39 e7             	cmp    rdi,r12
    27ec:	74 4e                	je     283c <_ZN8Bitboard8makeMoveERK4Move.cold+0x72>
    27ee:	c5 f8 77             	vzeroupper 
    27f1:	e8 0a fc ff ff       	call   2400 <_ZdlPv@plt>
    27f6:	48 89 ef             	mov    rdi,rbp
    27f9:	e8 32 fd ff ff       	call   2530 <_Unwind_Resume@plt>
    27fe:	c5 f8 77             	vzeroupper 
    2801:	eb d9                	jmp    27dc <_ZN8Bitboard8makeMoveERK4Move.cold+0x12>
    2803:	48 8b 7c 24 20       	mov    rdi,QWORD PTR [rsp+0x20]
    2808:	4c 39 e7             	cmp    rdi,r12
    280b:	74 2a                	je     2837 <_ZN8Bitboard8makeMoveERK4Move.cold+0x6d>
    280d:	c5 f8 77             	vzeroupper 
    2810:	e8 eb fb ff ff       	call   2400 <_ZdlPv@plt>
    2815:	48 89 ef             	mov    rdi,rbp
    2818:	e8 13 fd ff ff       	call   2530 <_Unwind_Resume@plt>
    281d:	48 8b 7c 24 20       	mov    rdi,QWORD PTR [rsp+0x20]
    2822:	4c 39 e7             	cmp    rdi,r12
    2825:	74 1a                	je     2841 <_ZN8Bitboard8makeMoveERK4Move.cold+0x77>
    2827:	c5 f8 77             	vzeroupper 
    282a:	e8 d1 fb ff ff       	call   2400 <_ZdlPv@plt>
    282f:	48 89 ef             	mov    rdi,rbp
    2832:	e8 f9 fc ff ff       	call   2530 <_Unwind_Resume@plt>
    2837:	c5 f8 77             	vzeroupper 
    283a:	eb d9                	jmp    2815 <_ZN8Bitboard8makeMoveERK4Move.cold+0x4b>
    283c:	c5 f8 77             	vzeroupper 
    283f:	eb b5                	jmp    27f6 <_ZN8Bitboard8makeMoveERK4Move.cold+0x2c>
    2841:	c5 f8 77             	vzeroupper 
    2844:	eb e9                	jmp    282f <_ZN8Bitboard8makeMoveERK4Move.cold+0x65>

0000000000002846 <_ZN8Bitboard13generateMovesEv.cold>:
    2846:	49 8b 3c 24          	mov    rdi,QWORD PTR [r12]
    284a:	48 85 ff             	test   rdi,rdi
    284d:	74 10                	je     285f <_ZN8Bitboard13generateMovesEv.cold+0x19>
    284f:	c5 f8 77             	vzeroupper 
    2852:	e8 a9 fb ff ff       	call   2400 <_ZdlPv@plt>
    2857:	48 89 ef             	mov    rdi,rbp
    285a:	e8 d1 fc ff ff       	call   2530 <_Unwind_Resume@plt>
    285f:	c5 f8 77             	vzeroupper 
    2862:	eb f3                	jmp    2857 <_ZN8Bitboard13generateMovesEv.cold+0x11>
    2864:	66 2e 0f 1f 84 00 00 	nop    WORD PTR cs:[rax+rax*1+0x0]
    286b:	00 00 00 
    286e:	66 90                	xchg   ax,ax

0000000000002870 <main>:
    2870:	f3 0f 1e fa          	endbr64 
    2874:	41 55                	push   r13
    2876:	41 54                	push   r12
    2878:	55                   	push   rbp
    2879:	53                   	push   rbx
    287a:	48 81 ec f8 00 00 00 	sub    rsp,0xf8
    2881:	48 8d ac 24 90 00 00 	lea    rbp,[rsp+0x90]
    2888:	00 
    2889:	49 89 e5             	mov    r13,rsp
    288c:	48 8d 9c 24 a0 00 00 	lea    rbx,[rsp+0xa0]
    2893:	00 
    2894:	64 48 8b 04 25 28 00 	mov    rax,QWORD PTR fs:0x28
    289b:	00 00 
    289d:	48 89 84 24 e8 00 00 	mov    QWORD PTR [rsp+0xe8],rax
    28a4:	00 
    28a5:	31 c0                	xor    eax,eax
    28a7:	4c 8d 64 24 40       	lea    r12,[rsp+0x40]
    28ac:	e8 4f 18 00 00       	call   4100 <_ZN8Bitboard13initConstantsEv>
    28b1:	31 d2                	xor    edx,edx
    28b3:	4c 89 ee             	mov    rsi,r13
    28b6:	48 89 ef             	mov    rdi,rbp
    28b9:	48 89 9c 24 90 00 00 	mov    QWORD PTR [rsp+0x90],rbx
    28c0:	00 
    28c1:	48 c7 04 24 34 00 00 	mov    QWORD PTR [rsp],0x34
    28c8:	00 
    28c9:	e8 72 fc ff ff       	call   2540 <_ZNSt7__cxx1112basic_stringIcSt11char_traitsIcESaIcEE9_M_createERmm@plt>
    28ce:	48 8b 14 24          	mov    rdx,QWORD PTR [rsp]
    28d2:	48 89 ee             	mov    rsi,rbp
    28d5:	4c 89 e7             	mov    rdi,r12
    28d8:	c5 f9 6f 05 30 37 00 	vmovdqa xmm0,XMMWORD PTR [rip+0x3730]        # 6010 <_IO_stdin_used+0x10>
    28df:	00 
    28e0:	48 89 84 24 90 00 00 	mov    QWORD PTR [rsp+0x90],rax
    28e7:	00 
    28e8:	48 89 94 24 a0 00 00 	mov    QWORD PTR [rsp+0xa0],rdx
    28ef:	00 
    28f0:	c5 f8 11 00          	vmovups XMMWORD PTR [rax],xmm0
    28f4:	c5 f9 6f 05 24 37 00 	vmovdqa xmm0,XMMWORD PTR [rip+0x3724]        # 6020 <_IO_stdin_used+0x20>
    28fb:	00 
    28fc:	c7 40 30 6b 71 20 2d 	mov    DWORD PTR [rax+0x30],0x2d20716b
    2903:	c5 f8 11 40 10       	vmovups XMMWORD PTR [rax+0x10],xmm0
    2908:	c5 f9 6f 05 20 37 00 	vmovdqa xmm0,XMMWORD PTR [rip+0x3720]        # 6030 <_IO_stdin_used+0x30>
    290f:	00 
    2910:	c5 f8 11 40 20       	vmovups XMMWORD PTR [rax+0x20],xmm0
    2915:	48 8b 04 24          	mov    rax,QWORD PTR [rsp]
    2919:	48 8b 94 24 90 00 00 	mov    rdx,QWORD PTR [rsp+0x90]
    2920:	00 
    2921:	48 89 84 24 98 00 00 	mov    QWORD PTR [rsp+0x98],rax
    2928:	00 
    2929:	c6 04 02 00          	mov    BYTE PTR [rdx+rax*1],0x0
    292d:	e8 3e 1b 00 00       	call   4470 <_ZN8BitboardC1ENSt7__cxx1112basic_stringIcSt11char_traitsIcESaIcEEE>
    2932:	48 8b bc 24 90 00 00 	mov    rdi,QWORD PTR [rsp+0x90]
    2939:	00 
    293a:	48 39 df             	cmp    rdi,rbx
    293d:	74 05                	je     2944 <main+0xd4>
    293f:	e8 bc fa ff ff       	call   2400 <_ZdlPv@plt>
    2944:	4c 89 e6             	mov    rsi,r12
    2947:	4c 89 ef             	mov    rdi,r13
    294a:	e8 b1 2f 00 00       	call   5900 <_ZN8Bitboard13generateMovesEv>
    294f:	be 01 00 00 00       	mov    esi,0x1
    2954:	4c 89 e7             	mov    rdi,r12
    2957:	e8 14 0e 00 00       	call   3770 <_ZN8Bitboard13getAllAttacksEh>
    295c:	48 89 c6             	mov    rsi,rax
    295f:	48 8d 7c 24 20       	lea    rdi,[rsp+0x20]
    2964:	b9 54 00 00 00       	mov    ecx,0x54
    2969:	ba ff ff ff ff       	mov    edx,0xffffffff
    296e:	e8 ed 08 00 00       	call   3260 <_ZN8Bitboard12bitboard2strB5cxx11Emic>
    2973:	ba 06 00 00 00       	mov    edx,0x6
    2978:	48 8d 35 85 36 00 00 	lea    rsi,[rip+0x3685]        # 6004 <_IO_stdin_used+0x4>
    297f:	48 8d 3d ba 66 00 00 	lea    rdi,[rip+0x66ba]        # 9040 <_ZSt4cout@@GLIBCXX_3.4>
    2986:	e8 b5 fa ff ff       	call   2440 <_ZSt16__ostream_insertIcSt11char_traitsIcEERSt13basic_ostreamIT_T0_ES6_PKS3_l@plt>
    298b:	48 8b 74 24 08       	mov    rsi,QWORD PTR [rsp+0x8]
    2990:	48 2b 34 24          	sub    rsi,QWORD PTR [rsp]
    2994:	48 b8 a3 8b 2e ba e8 	movabs rax,0x2e8ba2e8ba2e8ba3
    299b:	a2 8b 2e 
    299e:	48 8d 3d 9b 66 00 00 	lea    rdi,[rip+0x669b]        # 9040 <_ZSt4cout@@GLIBCXX_3.4>
    29a5:	48 0f af f0          	imul   rsi,rax
    29a9:	e8 e2 f9 ff ff       	call   2390 <_ZNSo9_M_insertImEERSoT_@plt>
    29ae:	48 89 c7             	mov    rdi,rax
    29b1:	e8 ba f9 ff ff       	call   2370 <_ZSt4endlIcSt11char_traitsIcEERSt13basic_ostreamIT_T0_ES6_@plt>
    29b6:	c5 f9 6f 4c 24 40    	vmovdqa xmm1,XMMWORD PTR [rsp+0x40]
    29bc:	c5 f9 6f 54 24 50    	vmovdqa xmm2,XMMWORD PTR [rsp+0x50]
    29c2:	4c 89 e6             	mov    rsi,r12
    29c5:	48 89 ef             	mov    rdi,rbp
    29c8:	c5 f9 6f 5c 24 60    	vmovdqa xmm3,XMMWORD PTR [rsp+0x60]
    29ce:	c5 f9 6f 64 24 70    	vmovdqa xmm4,XMMWORD PTR [rsp+0x70]
    29d4:	c5 f9 6f ac 24 80 00 	vmovdqa xmm5,XMMWORD PTR [rsp+0x80]
    29db:	00 00 
    29dd:	c5 f8 29 8c 24 90 00 	vmovaps XMMWORD PTR [rsp+0x90],xmm1
    29e4:	00 00 
    29e6:	c5 f8 29 94 24 a0 00 	vmovaps XMMWORD PTR [rsp+0xa0],xmm2
    29ed:	00 00 
    29ef:	c5 f8 29 9c 24 b0 00 	vmovaps XMMWORD PTR [rsp+0xb0],xmm3
    29f6:	00 00 
    29f8:	c5 f8 29 a4 24 c0 00 	vmovaps XMMWORD PTR [rsp+0xc0],xmm4
    29ff:	00 00 
    2a01:	c5 f8 29 ac 24 d0 00 	vmovaps XMMWORD PTR [rsp+0xd0],xmm5
    2a08:	00 00 
    2a0a:	e8 71 12 00 00       	call   3c80 <_ZN8BitboardeqERS_>
    2a0f:	0f b6 f0             	movzx  esi,al
    2a12:	48 8d 3d 27 66 00 00 	lea    rdi,[rip+0x6627]        # 9040 <_ZSt4cout@@GLIBCXX_3.4>
    2a19:	e8 e2 fa ff ff       	call   2500 <_ZNSo9_M_insertIbEERSoT_@plt>
    2a1e:	48 89 c7             	mov    rdi,rax
    2a21:	e8 4a f9 ff ff       	call   2370 <_ZSt4endlIcSt11char_traitsIcEERSt13basic_ostreamIT_T0_ES6_@plt>
    2a26:	48 8b 7c 24 20       	mov    rdi,QWORD PTR [rsp+0x20]
    2a2b:	48 8d 44 24 30       	lea    rax,[rsp+0x30]
    2a30:	48 39 c7             	cmp    rdi,rax
    2a33:	74 05                	je     2a3a <main+0x1ca>
    2a35:	e8 c6 f9 ff ff       	call   2400 <_ZdlPv@plt>
    2a3a:	48 8b 3c 24          	mov    rdi,QWORD PTR [rsp]
    2a3e:	48 85 ff             	test   rdi,rdi
    2a41:	74 05                	je     2a48 <main+0x1d8>
    2a43:	e8 b8 f9 ff ff       	call   2400 <_ZdlPv@plt>
    2a48:	48 8b 84 24 e8 00 00 	mov    rax,QWORD PTR [rsp+0xe8]
    2a4f:	00 
    2a50:	64 48 33 04 25 28 00 	xor    rax,QWORD PTR fs:0x28
    2a57:	00 00 
    2a59:	75 10                	jne    2a6b <main+0x1fb>
    2a5b:	48 81 c4 f8 00 00 00 	add    rsp,0xf8
    2a62:	31 c0                	xor    eax,eax
    2a64:	5b                   	pop    rbx
    2a65:	5d                   	pop    rbp
    2a66:	41 5c                	pop    r12
    2a68:	41 5d                	pop    r13
    2a6a:	c3                   	ret    
    2a6b:	e8 c0 f9 ff ff       	call   2430 <__stack_chk_fail@plt>
    2a70:	f3 0f 1e fa          	endbr64 
    2a74:	48 89 c5             	mov    rbp,rax
    2a77:	e9 04 fb ff ff       	jmp    2580 <main.cold>
    2a7c:	f3 0f 1e fa          	endbr64 
    2a80:	48 89 c5             	mov    rbp,rax
    2a83:	c5 f8 77             	vzeroupper 
    2a86:	e9 0c fb ff ff       	jmp    2597 <main.cold+0x17>
    2a8b:	f3 0f 1e fa          	endbr64 
    2a8f:	48 89 c5             	mov    rbp,rax
    2a92:	e9 16 fb ff ff       	jmp    25ad <main.cold+0x2d>
    2a97:	66 0f 1f 84 00 00 00 	nop    WORD PTR [rax+rax*1+0x0]
    2a9e:	00 00 

0000000000002aa0 <_GLOBAL__sub_I_main>:
    2aa0:	f3 0f 1e fa          	endbr64 
    2aa4:	48 83 ec 08          	sub    rsp,0x8
    2aa8:	48 8d 3d a2 66 00 00 	lea    rdi,[rip+0x66a2]        # 9151 <_ZStL8__ioinit>
    2aaf:	e8 1c fa ff ff       	call   24d0 <_ZNSt8ios_base4InitC1Ev@plt>
    2ab4:	48 8b 3d 3d 65 00 00 	mov    rdi,QWORD PTR [rip+0x653d]        # 8ff8 <_ZNSt8ios_base4InitD1Ev@GLIBCXX_3.4>
    2abb:	48 83 c4 08          	add    rsp,0x8
    2abf:	48 8d 15 42 65 00 00 	lea    rdx,[rip+0x6542]        # 9008 <__dso_handle>
    2ac6:	48 8d 35 84 66 00 00 	lea    rsi,[rip+0x6684]        # 9151 <_ZStL8__ioinit>
    2acd:	e9 0e f9 ff ff       	jmp    23e0 <__cxa_atexit@plt>
    2ad2:	66 2e 0f 1f 84 00 00 	nop    WORD PTR cs:[rax+rax*1+0x0]
    2ad9:	00 00 00 
    2adc:	0f 1f 40 00          	nop    DWORD PTR [rax+0x0]

0000000000002ae0 <_GLOBAL__sub_I__ZN8Bitboard2S1Em>:
    2ae0:	f3 0f 1e fa          	endbr64 
    2ae4:	48 83 ec 08          	sub    rsp,0x8
    2ae8:	48 8d 3d 63 66 00 00 	lea    rdi,[rip+0x6663]        # 9152 <_ZStL8__ioinit>
    2aef:	e8 dc f9 ff ff       	call   24d0 <_ZNSt8ios_base4InitC1Ev@plt>
    2af4:	48 8b 3d fd 64 00 00 	mov    rdi,QWORD PTR [rip+0x64fd]        # 8ff8 <_ZNSt8ios_base4InitD1Ev@GLIBCXX_3.4>
    2afb:	48 83 c4 08          	add    rsp,0x8
    2aff:	48 8d 15 02 65 00 00 	lea    rdx,[rip+0x6502]        # 9008 <__dso_handle>
    2b06:	48 8d 35 45 66 00 00 	lea    rsi,[rip+0x6645]        # 9152 <_ZStL8__ioinit>
    2b0d:	e9 ce f8 ff ff       	jmp    23e0 <__cxa_atexit@plt>
    2b12:	66 2e 0f 1f 84 00 00 	nop    WORD PTR cs:[rax+rax*1+0x0]
    2b19:	00 00 00 
    2b1c:	0f 1f 40 00          	nop    DWORD PTR [rax+0x0]

0000000000002b20 <_start>:
    2b20:	f3 0f 1e fa          	endbr64 
    2b24:	31 ed                	xor    ebp,ebp
    2b26:	49 89 d1             	mov    r9,rdx
    2b29:	5e                   	pop    rsi
    2b2a:	48 89 e2             	mov    rdx,rsp
    2b2d:	48 83 e4 f0          	and    rsp,0xfffffffffffffff0
    2b31:	50                   	push   rax
    2b32:	54                   	push   rsp
    2b33:	4c 8d 05 26 31 00 00 	lea    r8,[rip+0x3126]        # 5c60 <__libc_csu_fini>
    2b3a:	48 8d 0d af 30 00 00 	lea    rcx,[rip+0x30af]        # 5bf0 <__libc_csu_init>
    2b41:	48 8d 3d 28 fd ff ff 	lea    rdi,[rip+0xfffffffffffffd28]        # 2870 <main>
    2b48:	ff 15 92 64 00 00    	call   QWORD PTR [rip+0x6492]        # 8fe0 <__libc_start_main@GLIBC_2.2.5>
    2b4e:	f4                   	hlt    
    2b4f:	90                   	nop

0000000000002b50 <deregister_tm_clones>:
    2b50:	48 8d 3d c1 64 00 00 	lea    rdi,[rip+0x64c1]        # 9018 <__TMC_END__>
    2b57:	48 8d 05 ba 64 00 00 	lea    rax,[rip+0x64ba]        # 9018 <__TMC_END__>
    2b5e:	48 39 f8             	cmp    rax,rdi
    2b61:	74 15                	je     2b78 <deregister_tm_clones+0x28>
    2b63:	48 8b 05 6e 64 00 00 	mov    rax,QWORD PTR [rip+0x646e]        # 8fd8 <_ITM_deregisterTMCloneTable>
    2b6a:	48 85 c0             	test   rax,rax
    2b6d:	74 09                	je     2b78 <deregister_tm_clones+0x28>
    2b6f:	ff e0                	jmp    rax
    2b71:	0f 1f 80 00 00 00 00 	nop    DWORD PTR [rax+0x0]
    2b78:	c3                   	ret    
    2b79:	0f 1f 80 00 00 00 00 	nop    DWORD PTR [rax+0x0]

0000000000002b80 <register_tm_clones>:
    2b80:	48 8d 3d 91 64 00 00 	lea    rdi,[rip+0x6491]        # 9018 <__TMC_END__>
    2b87:	48 8d 35 8a 64 00 00 	lea    rsi,[rip+0x648a]        # 9018 <__TMC_END__>
    2b8e:	48 29 fe             	sub    rsi,rdi
    2b91:	48 89 f0             	mov    rax,rsi
    2b94:	48 c1 ee 3f          	shr    rsi,0x3f
    2b98:	48 c1 f8 03          	sar    rax,0x3
    2b9c:	48 01 c6             	add    rsi,rax
    2b9f:	48 d1 fe             	sar    rsi,1
    2ba2:	74 14                	je     2bb8 <register_tm_clones+0x38>
    2ba4:	48 8b 05 45 64 00 00 	mov    rax,QWORD PTR [rip+0x6445]        # 8ff0 <_ITM_registerTMCloneTable>
    2bab:	48 85 c0             	test   rax,rax
    2bae:	74 08                	je     2bb8 <register_tm_clones+0x38>
    2bb0:	ff e0                	jmp    rax
    2bb2:	66 0f 1f 44 00 00    	nop    WORD PTR [rax+rax*1+0x0]
    2bb8:	c3                   	ret    
    2bb9:	0f 1f 80 00 00 00 00 	nop    DWORD PTR [rax+0x0]

0000000000002bc0 <__do_global_dtors_aux>:
    2bc0:	f3 0f 1e fa          	endbr64 
    2bc4:	80 3d 85 65 00 00 00 	cmp    BYTE PTR [rip+0x6585],0x0        # 9150 <completed.8060>
    2bcb:	75 2b                	jne    2bf8 <__do_global_dtors_aux+0x38>
    2bcd:	55                   	push   rbp
    2bce:	48 83 3d fa 63 00 00 	cmp    QWORD PTR [rip+0x63fa],0x0        # 8fd0 <__cxa_finalize@GLIBC_2.2.5>
    2bd5:	00 
    2bd6:	48 89 e5             	mov    rbp,rsp
    2bd9:	74 0c                	je     2be7 <__do_global_dtors_aux+0x27>
    2bdb:	48 8b 3d 26 64 00 00 	mov    rdi,QWORD PTR [rip+0x6426]        # 9008 <__dso_handle>
    2be2:	e8 e9 f6 ff ff       	call   22d0 <__cxa_finalize@plt>
    2be7:	e8 64 ff ff ff       	call   2b50 <deregister_tm_clones>
    2bec:	c6 05 5d 65 00 00 01 	mov    BYTE PTR [rip+0x655d],0x1        # 9150 <completed.8060>
    2bf3:	5d                   	pop    rbp
    2bf4:	c3                   	ret    
    2bf5:	0f 1f 00             	nop    DWORD PTR [rax]
    2bf8:	c3                   	ret    
    2bf9:	0f 1f 80 00 00 00 00 	nop    DWORD PTR [rax+0x0]

0000000000002c00 <frame_dummy>:
    2c00:	f3 0f 1e fa          	endbr64 
    2c04:	e9 77 ff ff ff       	jmp    2b80 <register_tm_clones>
    2c09:	0f 1f 80 00 00 00 00 	nop    DWORD PTR [rax+0x0]

0000000000002c10 <_ZN8Bitboard2S1Em>:
    2c10:	f3 0f 1e fa          	endbr64 
    2c14:	48 89 f8             	mov    rax,rdi
    2c17:	48 c1 e8 08          	shr    rax,0x8
    2c1b:	c3                   	ret    
    2c1c:	0f 1f 40 00          	nop    DWORD PTR [rax+0x0]

0000000000002c20 <_ZN8Bitboard2N1Em>:
    2c20:	f3 0f 1e fa          	endbr64 
    2c24:	48 89 f8             	mov    rax,rdi
    2c27:	48 c1 e0 08          	shl    rax,0x8
    2c2b:	c3                   	ret    
    2c2c:	0f 1f 40 00          	nop    DWORD PTR [rax+0x0]

0000000000002c30 <_ZN8Bitboard2E1Em>:
    2c30:	f3 0f 1e fa          	endbr64 
    2c34:	48 8d 04 3f          	lea    rax,[rdi+rdi*1]
    2c38:	48 bf fe fe fe fe fe 	movabs rdi,0xfefefefefefefefe
    2c3f:	fe fe fe 
    2c42:	48 21 f8             	and    rax,rdi
    2c45:	c3                   	ret    
    2c46:	66 2e 0f 1f 84 00 00 	nop    WORD PTR cs:[rax+rax*1+0x0]
    2c4d:	00 00 00 

0000000000002c50 <_ZN8Bitboard3NE1Em>:
    2c50:	f3 0f 1e fa          	endbr64 
    2c54:	48 89 f8             	mov    rax,rdi
    2c57:	48 bf 00 fe fe fe fe 	movabs rdi,0xfefefefefefefe00
    2c5e:	fe fe fe 
    2c61:	48 c1 e0 09          	shl    rax,0x9
    2c65:	48 21 f8             	and    rax,rdi
    2c68:	c3                   	ret    
    2c69:	90                   	nop
    2c6a:	66 0f 1f 44 00 00    	nop    WORD PTR [rax+rax*1+0x0]

0000000000002c70 <_ZN8Bitboard3SE1Em>:
    2c70:	f3 0f 1e fa          	endbr64 
    2c74:	48 89 f8             	mov    rax,rdi
    2c77:	48 bf fe fe fe fe fe 	movabs rdi,0xfefefefefefefe
    2c7e:	fe fe 00 
    2c81:	48 c1 e8 07          	shr    rax,0x7
    2c85:	48 21 f8             	and    rax,rdi
    2c88:	c3                   	ret    
    2c89:	90                   	nop
    2c8a:	66 0f 1f 44 00 00    	nop    WORD PTR [rax+rax*1+0x0]

0000000000002c90 <_ZN8Bitboard2W1Em>:
    2c90:	f3 0f 1e fa          	endbr64 
    2c94:	48 89 f8             	mov    rax,rdi
    2c97:	48 bf 7f 7f 7f 7f 7f 	movabs rdi,0x7f7f7f7f7f7f7f7f
    2c9e:	7f 7f 7f 
    2ca1:	48 d1 e8             	shr    rax,1
    2ca4:	48 21 f8             	and    rax,rdi
    2ca7:	c3                   	ret    
    2ca8:	0f 1f 84 00 00 00 00 	nop    DWORD PTR [rax+rax*1+0x0]
    2caf:	00 

0000000000002cb0 <_ZN8Bitboard3SW1Em>:
    2cb0:	f3 0f 1e fa          	endbr64 
    2cb4:	48 89 f8             	mov    rax,rdi
    2cb7:	48 bf 7f 7f 7f 7f 7f 	movabs rdi,0x7f7f7f7f7f7f7f
    2cbe:	7f 7f 00 
    2cc1:	48 c1 e8 09          	shr    rax,0x9
    2cc5:	48 21 f8             	and    rax,rdi
    2cc8:	c3                   	ret    
    2cc9:	90                   	nop
    2cca:	66 0f 1f 44 00 00    	nop    WORD PTR [rax+rax*1+0x0]

0000000000002cd0 <_ZN8Bitboard3NW1Em>:
    2cd0:	f3 0f 1e fa          	endbr64 
    2cd4:	48 89 f8             	mov    rax,rdi
    2cd7:	48 bf 00 7f 7f 7f 7f 	movabs rdi,0x7f7f7f7f7f7f7f00
    2cde:	7f 7f 7f 
    2ce1:	48 c1 e0 07          	shl    rax,0x7
    2ce5:	48 21 f8             	and    rax,rdi
    2ce8:	c3                   	ret    
    2ce9:	90                   	nop
    2cea:	66 0f 1f 44 00 00    	nop    WORD PTR [rax+rax*1+0x0]

0000000000002cf0 <_ZN8Bitboard3NNEEm>:
    2cf0:	f3 0f 1e fa          	endbr64 
    2cf4:	48 89 f8             	mov    rax,rdi
    2cf7:	48 bf 00 00 fe fe fe 	movabs rdi,0xfefefefefefe0000
    2cfe:	fe fe fe 
    2d01:	48 c1 e0 11          	shl    rax,0x11
    2d05:	48 21 f8             	and    rax,rdi
    2d08:	c3                   	ret    
    2d09:	90                   	nop
    2d0a:	66 0f 1f 44 00 00    	nop    WORD PTR [rax+rax*1+0x0]

0000000000002d10 <_ZN8Bitboard3NEEEm>:
    2d10:	f3 0f 1e fa          	endbr64 
    2d14:	48 89 f8             	mov    rax,rdi
    2d17:	48 bf 00 fc fc fc fc 	movabs rdi,0xfcfcfcfcfcfcfc00
    2d1e:	fc fc fc 
    2d21:	48 c1 e0 0a          	shl    rax,0xa
    2d25:	48 21 f8             	and    rax,rdi
    2d28:	c3                   	ret    
    2d29:	90                   	nop
    2d2a:	66 0f 1f 44 00 00    	nop    WORD PTR [rax+rax*1+0x0]

0000000000002d30 <_ZN8Bitboard3SEEEm>:
    2d30:	f3 0f 1e fa          	endbr64 
    2d34:	48 89 f8             	mov    rax,rdi
    2d37:	48 bf fc fc fc fc fc 	movabs rdi,0xfcfcfcfcfcfcfc
    2d3e:	fc fc 00 
    2d41:	48 c1 e8 06          	shr    rax,0x6
    2d45:	48 21 f8             	and    rax,rdi
    2d48:	c3                   	ret    
    2d49:	90                   	nop
    2d4a:	66 0f 1f 44 00 00    	nop    WORD PTR [rax+rax*1+0x0]

0000000000002d50 <_ZN8Bitboard3SSEEm>:
    2d50:	f3 0f 1e fa          	endbr64 
    2d54:	48 89 f8             	mov    rax,rdi
    2d57:	48 bf fe fe fe fe fe 	movabs rdi,0xfefefefefefe
    2d5e:	fe 00 00 
    2d61:	48 c1 e8 0f          	shr    rax,0xf
    2d65:	48 21 f8             	and    rax,rdi
    2d68:	c3                   	ret    
    2d69:	90                   	nop
    2d6a:	66 0f 1f 44 00 00    	nop    WORD PTR [rax+rax*1+0x0]

0000000000002d70 <_ZN8Bitboard3NNWEm>:
    2d70:	f3 0f 1e fa          	endbr64 
    2d74:	48 89 f8             	mov    rax,rdi
    2d77:	48 bf 00 00 7f 7f 7f 	movabs rdi,0x7f7f7f7f7f7f0000
    2d7e:	7f 7f 7f 
    2d81:	48 c1 e0 0f          	shl    rax,0xf
    2d85:	48 21 f8             	and    rax,rdi
    2d88:	c3                   	ret    
    2d89:	90                   	nop
    2d8a:	66 0f 1f 44 00 00    	nop    WORD PTR [rax+rax*1+0x0]

0000000000002d90 <_ZN8Bitboard3NWWEm>:
    2d90:	f3 0f 1e fa          	endbr64 
    2d94:	48 89 f8             	mov    rax,rdi
    2d97:	48 bf 00 3f 3f 3f 3f 	movabs rdi,0x3f3f3f3f3f3f3f00
    2d9e:	3f 3f 3f 
    2da1:	48 c1 e0 06          	shl    rax,0x6
    2da5:	48 21 f8             	and    rax,rdi
    2da8:	c3                   	ret    
    2da9:	90                   	nop
    2daa:	66 0f 1f 44 00 00    	nop    WORD PTR [rax+rax*1+0x0]

0000000000002db0 <_ZN8Bitboard3SWWEm>:
    2db0:	f3 0f 1e fa          	endbr64 
    2db4:	48 89 f8             	mov    rax,rdi
    2db7:	48 bf 3f 3f 3f 3f 3f 	movabs rdi,0x3f3f3f3f3f3f3f
    2dbe:	3f 3f 00 
    2dc1:	48 c1 e8 0a          	shr    rax,0xa
    2dc5:	48 21 f8             	and    rax,rdi
    2dc8:	c3                   	ret    
    2dc9:	90                   	nop
    2dca:	66 0f 1f 44 00 00    	nop    WORD PTR [rax+rax*1+0x0]

0000000000002dd0 <_ZN8Bitboard3SSWEm>:
    2dd0:	f3 0f 1e fa          	endbr64 
    2dd4:	48 89 f8             	mov    rax,rdi
    2dd7:	48 bf 7f 7f 7f 7f 7f 	movabs rdi,0x7f7f7f7f7f7f
    2dde:	7f 00 00 
    2de1:	48 c1 e8 11          	shr    rax,0x11
    2de5:	48 21 f8             	and    rax,rdi
    2de8:	c3                   	ret    
    2de9:	90                   	nop
    2dea:	66 0f 1f 44 00 00    	nop    WORD PTR [rax+rax*1+0x0]

0000000000002df0 <_ZN8Bitboard8rankMaskEm>:
    2df0:	f3 0f 1e fa          	endbr64 
    2df4:	89 f9                	mov    ecx,edi
    2df6:	b8 ff 00 00 00       	mov    eax,0xff
    2dfb:	83 e1 38             	and    ecx,0x38
    2dfe:	48 d3 e0             	shl    rax,cl
    2e01:	c3                   	ret    
    2e02:	66 66 2e 0f 1f 84 00 	data16 nop WORD PTR cs:[rax+rax*1+0x0]
    2e09:	00 00 00 00 
    2e0d:	0f 1f 00             	nop    DWORD PTR [rax]

0000000000002e10 <_ZN8Bitboard8fileMaskEm>:
    2e10:	f3 0f 1e fa          	endbr64 
    2e14:	48 b8 01 01 01 01 01 	movabs rax,0x101010101010101
    2e1b:	01 01 01 
    2e1e:	89 f9                	mov    ecx,edi
    2e20:	83 e1 07             	and    ecx,0x7
    2e23:	48 d3 e0             	shl    rax,cl
    2e26:	c3                   	ret    
    2e27:	90                   	nop
    2e28:	0f 1f 84 00 00 00 00 	nop    DWORD PTR [rax+rax*1+0x0]
    2e2f:	00 

0000000000002e30 <_ZN8Bitboard12diagonalMaskEm>:
    2e30:	f3 0f 1e fa          	endbr64 
    2e34:	48 89 f8             	mov    rax,rdi
    2e37:	83 e7 38             	and    edi,0x38
    2e3a:	83 e0 07             	and    eax,0x7
    2e3d:	48 c1 e0 03          	shl    rax,0x3
    2e41:	48 89 c2             	mov    rdx,rax
    2e44:	48 29 fa             	sub    rdx,rdi
    2e47:	48 29 c7             	sub    rdi,rax
    2e4a:	48 b8 01 02 04 08 10 	movabs rax,0x8040201008040201
    2e51:	20 40 80 
    2e54:	48 89 f9             	mov    rcx,rdi
    2e57:	48 c1 e9 1f          	shr    rcx,0x1f
    2e5b:	48 21 d1             	and    rcx,rdx
    2e5e:	48 c1 ea 1f          	shr    rdx,0x1f
    2e62:	48 d3 e8             	shr    rax,cl
    2e65:	48 89 d1             	mov    rcx,rdx
    2e68:	48 21 f9             	and    rcx,rdi
    2e6b:	48 d3 e0             	shl    rax,cl
    2e6e:	c3                   	ret    
    2e6f:	90                   	nop

0000000000002e70 <_ZN8Bitboard12antiDiagMaskEm>:
    2e70:	f3 0f 1e fa          	endbr64 
    2e74:	48 89 f8             	mov    rax,rdi
    2e77:	83 e7 38             	and    edi,0x38
    2e7a:	48 f7 d0             	not    rax
    2e7d:	83 e0 07             	and    eax,0x7
    2e80:	48 c1 e0 03          	shl    rax,0x3
    2e84:	48 89 c2             	mov    rdx,rax
    2e87:	48 29 fa             	sub    rdx,rdi
    2e8a:	48 29 c7             	sub    rdi,rax
    2e8d:	48 b8 80 40 20 10 08 	movabs rax,0x102040810204080
    2e94:	04 02 01 
    2e97:	48 89 f9             	mov    rcx,rdi
    2e9a:	48 c1 e9 1f          	shr    rcx,0x1f
    2e9e:	48 21 d1             	and    rcx,rdx
    2ea1:	48 c1 ea 1f          	shr    rdx,0x1f
    2ea5:	48 d3 e8             	shr    rax,cl
    2ea8:	48 89 d1             	mov    rcx,rdx
    2eab:	48 21 f9             	and    rcx,rdi
    2eae:	48 d3 e0             	shl    rax,cl
    2eb1:	c3                   	ret    
    2eb2:	66 66 2e 0f 1f 84 00 	data16 nop WORD PTR cs:[rax+rax*1+0x0]
    2eb9:	00 00 00 00 
    2ebd:	0f 1f 00             	nop    DWORD PTR [rax]

0000000000002ec0 <_ZN8Bitboard10rankMaskExEi>:
    2ec0:	f3 0f 1e fa          	endbr64 
    2ec4:	89 f9                	mov    ecx,edi
    2ec6:	b8 ff 00 00 00       	mov    eax,0xff
    2ecb:	83 e1 38             	and    ecx,0x38
    2ece:	48 d3 e0             	shl    rax,cl
    2ed1:	48 0f bb f8          	btc    rax,rdi
    2ed5:	c3                   	ret    
    2ed6:	66 2e 0f 1f 84 00 00 	nop    WORD PTR cs:[rax+rax*1+0x0]
    2edd:	00 00 00 

0000000000002ee0 <_ZN8Bitboard10fileMaskExEi>:
    2ee0:	f3 0f 1e fa          	endbr64 
    2ee4:	48 b8 01 01 01 01 01 	movabs rax,0x101010101010101
    2eeb:	01 01 01 
    2eee:	89 f9                	mov    ecx,edi
    2ef0:	83 e1 07             	and    ecx,0x7
    2ef3:	48 d3 e0             	shl    rax,cl
    2ef6:	48 0f bb f8          	btc    rax,rdi
    2efa:	c3                   	ret    
    2efb:	90                   	nop
    2efc:	0f 1f 40 00          	nop    DWORD PTR [rax+0x0]

0000000000002f00 <_ZN8Bitboard14diagonalMaskExEi>:
    2f00:	f3 0f 1e fa          	endbr64 
    2f04:	89 f8                	mov    eax,edi
    2f06:	89 f9                	mov    ecx,edi
    2f08:	83 e1 38             	and    ecx,0x38
    2f0b:	83 e0 07             	and    eax,0x7
    2f0e:	48 c1 e0 03          	shl    rax,0x3
    2f12:	48 89 ce             	mov    rsi,rcx
    2f15:	48 29 c6             	sub    rsi,rax
    2f18:	48 89 c2             	mov    rdx,rax
    2f1b:	48 b8 01 02 04 08 10 	movabs rax,0x8040201008040201
    2f22:	20 40 80 
    2f25:	48 29 ca             	sub    rdx,rcx
    2f28:	48 89 f1             	mov    rcx,rsi
    2f2b:	48 c1 e9 1f          	shr    rcx,0x1f
    2f2f:	48 21 d1             	and    rcx,rdx
    2f32:	48 c1 ea 1f          	shr    rdx,0x1f
    2f36:	48 d3 e8             	shr    rax,cl
    2f39:	48 89 d1             	mov    rcx,rdx
    2f3c:	48 21 f1             	and    rcx,rsi
    2f3f:	48 d3 e0             	shl    rax,cl
    2f42:	48 0f bb f8          	btc    rax,rdi
    2f46:	c3                   	ret    
    2f47:	90                   	nop
    2f48:	0f 1f 84 00 00 00 00 	nop    DWORD PTR [rax+rax*1+0x0]
    2f4f:	00 

0000000000002f50 <_ZN8Bitboard14antiDiagMaskExEi>:
    2f50:	f3 0f 1e fa          	endbr64 
    2f54:	48 89 f8             	mov    rax,rdi
    2f57:	89 f9                	mov    ecx,edi
    2f59:	48 f7 d0             	not    rax
    2f5c:	83 e1 38             	and    ecx,0x38
    2f5f:	83 e0 07             	and    eax,0x7
    2f62:	48 89 ce             	mov    rsi,rcx
    2f65:	48 c1 e0 03          	shl    rax,0x3
    2f69:	48 29 c6             	sub    rsi,rax
    2f6c:	48 89 c2             	mov    rdx,rax
    2f6f:	48 b8 80 40 20 10 08 	movabs rax,0x102040810204080
    2f76:	04 02 01 
    2f79:	48 29 ca             	sub    rdx,rcx
    2f7c:	48 89 f1             	mov    rcx,rsi
    2f7f:	48 c1 e9 1f          	shr    rcx,0x1f
    2f83:	48 21 d1             	and    rcx,rdx
    2f86:	48 c1 ea 1f          	shr    rdx,0x1f
    2f8a:	48 d3 e8             	shr    rax,cl
    2f8d:	48 89 d1             	mov    rcx,rdx
    2f90:	48 21 f1             	and    rcx,rsi
    2f93:	48 d3 e0             	shl    rax,cl
    2f96:	48 0f bb f8          	btc    rax,rdi
    2f9a:	c3                   	ret    
    2f9b:	90                   	nop
    2f9c:	0f 1f 40 00          	nop    DWORD PTR [rax+0x0]

0000000000002fa0 <_ZN8Bitboard8rookMaskEi>:
    2fa0:	f3 0f 1e fa          	endbr64 
    2fa4:	89 f9                	mov    ecx,edi
    2fa6:	83 e7 38             	and    edi,0x38
    2fa9:	ba ff 00 00 00       	mov    edx,0xff
    2fae:	48 b8 01 01 01 01 01 	movabs rax,0x101010101010101
    2fb5:	01 01 01 
    2fb8:	83 e1 07             	and    ecx,0x7
    2fbb:	48 d3 e0             	shl    rax,cl
    2fbe:	89 f9                	mov    ecx,edi
    2fc0:	48 d3 e2             	shl    rdx,cl
    2fc3:	48 09 d0             	or     rax,rdx
    2fc6:	c3                   	ret    
    2fc7:	90                   	nop
    2fc8:	0f 1f 84 00 00 00 00 	nop    DWORD PTR [rax+rax*1+0x0]
    2fcf:	00 

0000000000002fd0 <_ZN8Bitboard10bishopMaskEi>:
    2fd0:	f3 0f 1e fa          	endbr64 
    2fd4:	89 fa                	mov    edx,edi
    2fd6:	89 f8                	mov    eax,edi
    2fd8:	48 f7 d7             	not    rdi
    2fdb:	83 e2 07             	and    edx,0x7
    2fde:	83 e7 07             	and    edi,0x7
    2fe1:	83 e0 38             	and    eax,0x38
    2fe4:	48 c1 e2 03          	shl    rdx,0x3
    2fe8:	48 c1 e7 03          	shl    rdi,0x3
    2fec:	49 89 c1             	mov    r9,rax
    2fef:	48 89 d6             	mov    rsi,rdx
    2ff2:	49 89 f8             	mov    r8,rdi
    2ff5:	49 29 d1             	sub    r9,rdx
    2ff8:	48 29 c6             	sub    rsi,rax
    2ffb:	49 29 c0             	sub    r8,rax
    2ffe:	48 29 f8             	sub    rax,rdi
    3001:	48 89 c1             	mov    rcx,rax
    3004:	48 89 c2             	mov    rdx,rax
    3007:	48 b8 80 40 20 10 08 	movabs rax,0x102040810204080
    300e:	04 02 01 
    3011:	48 c1 e9 1f          	shr    rcx,0x1f
    3015:	4c 21 c1             	and    rcx,r8
    3018:	48 d3 e8             	shr    rax,cl
    301b:	4c 89 c1             	mov    rcx,r8
    301e:	48 c1 e9 1f          	shr    rcx,0x1f
    3022:	48 21 d1             	and    rcx,rdx
    3025:	48 ba 01 02 04 08 10 	movabs rdx,0x8040201008040201
    302c:	20 40 80 
    302f:	48 d3 e0             	shl    rax,cl
    3032:	4c 89 c9             	mov    rcx,r9
    3035:	48 c1 e9 1f          	shr    rcx,0x1f
    3039:	48 21 f1             	and    rcx,rsi
    303c:	48 c1 ee 1f          	shr    rsi,0x1f
    3040:	48 d3 ea             	shr    rdx,cl
    3043:	48 89 f1             	mov    rcx,rsi
    3046:	4c 21 c9             	and    rcx,r9
    3049:	48 d3 e2             	shl    rdx,cl
    304c:	48 09 d0             	or     rax,rdx
    304f:	c3                   	ret    

0000000000003050 <_ZN8Bitboard10rookMaskExEi>:
    3050:	f3 0f 1e fa          	endbr64 
    3054:	89 f9                	mov    ecx,edi
    3056:	83 e7 38             	and    edi,0x38
    3059:	ba ff 00 00 00       	mov    edx,0xff
    305e:	48 b8 01 01 01 01 01 	movabs rax,0x101010101010101
    3065:	01 01 01 
    3068:	83 e1 07             	and    ecx,0x7
    306b:	48 d3 e0             	shl    rax,cl
    306e:	89 f9                	mov    ecx,edi
    3070:	48 d3 e2             	shl    rdx,cl
    3073:	48 31 d0             	xor    rax,rdx
    3076:	c3                   	ret    
    3077:	90                   	nop
    3078:	0f 1f 84 00 00 00 00 	nop    DWORD PTR [rax+rax*1+0x0]
    307f:	00 

0000000000003080 <_ZN8Bitboard12bishopMaskExEi>:
    3080:	f3 0f 1e fa          	endbr64 
    3084:	89 fa                	mov    edx,edi
    3086:	89 f8                	mov    eax,edi
    3088:	48 f7 d7             	not    rdi
    308b:	83 e2 07             	and    edx,0x7
    308e:	83 e7 07             	and    edi,0x7
    3091:	83 e0 38             	and    eax,0x38
    3094:	48 c1 e2 03          	shl    rdx,0x3
    3098:	48 c1 e7 03          	shl    rdi,0x3
    309c:	49 89 c1             	mov    r9,rax
    309f:	48 89 d6             	mov    rsi,rdx
    30a2:	49 89 f8             	mov    r8,rdi
    30a5:	49 29 d1             	sub    r9,rdx
    30a8:	48 29 c6             	sub    rsi,rax
    30ab:	49 29 c0             	sub    r8,rax
    30ae:	48 29 f8             	sub    rax,rdi
    30b1:	48 89 c1             	mov    rcx,rax
    30b4:	48 89 c2             	mov    rdx,rax
    30b7:	48 b8 80 40 20 10 08 	movabs rax,0x102040810204080
    30be:	04 02 01 
    30c1:	48 c1 e9 1f          	shr    rcx,0x1f
    30c5:	4c 21 c1             	and    rcx,r8
    30c8:	48 d3 e8             	shr    rax,cl
    30cb:	4c 89 c1             	mov    rcx,r8
    30ce:	48 c1 e9 1f          	shr    rcx,0x1f
    30d2:	48 21 d1             	and    rcx,rdx
    30d5:	48 ba 01 02 04 08 10 	movabs rdx,0x8040201008040201
    30dc:	20 40 80 
    30df:	48 d3 e0             	shl    rax,cl
    30e2:	4c 89 c9             	mov    rcx,r9
    30e5:	48 c1 e9 1f          	shr    rcx,0x1f
    30e9:	48 21 f1             	and    rcx,rsi
    30ec:	48 c1 ee 1f          	shr    rsi,0x1f
    30f0:	48 d3 ea             	shr    rdx,cl
    30f3:	48 89 f1             	mov    rcx,rsi
    30f6:	4c 21 c9             	and    rcx,r9
    30f9:	48 d3 e2             	shl    rdx,cl
    30fc:	48 31 d0             	xor    rax,rdx
    30ff:	c3                   	ret    

0000000000003100 <_ZN8Bitboard9queenMaskEi>:
    3100:	f3 0f 1e fa          	endbr64 
    3104:	89 f9                	mov    ecx,edi
    3106:	41 ba ff 00 00 00    	mov    r10d,0xff
    310c:	48 b8 01 01 01 01 01 	movabs rax,0x101010101010101
    3113:	01 01 01 
    3116:	83 e1 38             	and    ecx,0x38
    3119:	49 d3 e2             	shl    r10,cl
    311c:	89 f9                	mov    ecx,edi
    311e:	83 e1 07             	and    ecx,0x7
    3121:	48 d3 e0             	shl    rax,cl
    3124:	49 09 c2             	or     r10,rax
    3127:	e8 a4 fe ff ff       	call   2fd0 <_ZN8Bitboard10bishopMaskEi>
    312c:	4c 09 d0             	or     rax,r10
    312f:	c3                   	ret    

0000000000003130 <_ZN8Bitboard11queenMaskExEi>:
    3130:	f3 0f 1e fa          	endbr64 
    3134:	89 f9                	mov    ecx,edi
    3136:	41 ba ff 00 00 00    	mov    r10d,0xff
    313c:	48 b8 01 01 01 01 01 	movabs rax,0x101010101010101
    3143:	01 01 01 
    3146:	83 e1 38             	and    ecx,0x38
    3149:	49 d3 e2             	shl    r10,cl
    314c:	89 f9                	mov    ecx,edi
    314e:	83 e1 07             	and    ecx,0x7
    3151:	48 d3 e0             	shl    rax,cl
    3154:	49 09 c2             	or     r10,rax
    3157:	e8 74 fe ff ff       	call   2fd0 <_ZN8Bitboard10bishopMaskEi>
    315c:	4c 31 d0             	xor    rax,r10
    315f:	c3                   	ret    

0000000000003160 <_ZN8Bitboard11kingAttacksEm>:
    3160:	f3 0f 1e fa          	endbr64 
    3164:	48 ba 7f 7f 7f 7f 7f 	movabs rdx,0x7f7f7f7f7f7f7f7f
    316b:	7f 7f 7f 
    316e:	48 89 f8             	mov    rax,rdi
    3171:	48 b9 fe fe fe fe fe 	movabs rcx,0xfefefefefefefefe
    3178:	fe fe fe 
    317b:	48 d1 e8             	shr    rax,1
    317e:	48 21 d0             	and    rax,rdx
    3181:	48 8d 14 3f          	lea    rdx,[rdi+rdi*1]
    3185:	48 21 ca             	and    rdx,rcx
    3188:	48 09 d0             	or     rax,rdx
    318b:	48 09 c7             	or     rdi,rax
    318e:	48 89 fa             	mov    rdx,rdi
    3191:	48 c1 ef 08          	shr    rdi,0x8
    3195:	48 c1 e2 08          	shl    rdx,0x8
    3199:	48 09 d7             	or     rdi,rdx
    319c:	48 09 f8             	or     rax,rdi
    319f:	c3                   	ret    

00000000000031a0 <_ZN8Bitboard13knightAttacksEm>:
    31a0:	f3 0f 1e fa          	endbr64 
    31a4:	48 b8 7f 7f 7f 7f 7f 	movabs rax,0x7f7f7f7f7f7f7f7f
    31ab:	7f 7f 7f 
    31ae:	48 89 fa             	mov    rdx,rdi
    31b1:	48 b9 fe fe fe fe fe 	movabs rcx,0xfefefefefefefefe
    31b8:	fe fe fe 
    31bb:	48 d1 ea             	shr    rdx,1
    31be:	48 21 c2             	and    rdx,rax
    31c1:	48 8d 04 3f          	lea    rax,[rdi+rdi*1]
    31c5:	48 21 c8             	and    rax,rcx
    31c8:	48 b9 3f 3f 3f 3f 3f 	movabs rcx,0x3f3f3f3f3f3f3f3f
    31cf:	3f 3f 3f 
    31d2:	48 09 c2             	or     rdx,rax
    31d5:	48 89 f8             	mov    rax,rdi
    31d8:	48 c1 e7 02          	shl    rdi,0x2
    31dc:	48 c1 e8 02          	shr    rax,0x2
    31e0:	48 21 c8             	and    rax,rcx
    31e3:	48 b9 fc fc fc fc fc 	movabs rcx,0xfcfcfcfcfcfcfcfc
    31ea:	fc fc fc 
    31ed:	48 21 cf             	and    rdi,rcx
    31f0:	48 09 c7             	or     rdi,rax
    31f3:	48 89 d0             	mov    rax,rdx
    31f6:	48 c1 ea 10          	shr    rdx,0x10
    31fa:	48 c1 e0 10          	shl    rax,0x10
    31fe:	48 09 c2             	or     rdx,rax
    3201:	48 89 f8             	mov    rax,rdi
    3204:	48 c1 ef 08          	shr    rdi,0x8
    3208:	48 c1 e0 08          	shl    rax,0x8
    320c:	48 09 c2             	or     rdx,rax
    320f:	48 89 d0             	mov    rax,rdx
    3212:	48 09 f8             	or     rax,rdi
    3215:	c3                   	ret    
    3216:	66 2e 0f 1f 84 00 00 	nop    WORD PTR cs:[rax+rax*1+0x0]
    321d:	00 00 00 

0000000000003220 <_ZN8Bitboard17squareString2maskENSt7__cxx1112basic_stringIcSt11char_traitsIcESaIcEEE>:
    3220:	f3 0f 1e fa          	endbr64 
    3224:	48 8b 07             	mov    rax,QWORD PTR [rdi]
    3227:	0f be 50 01          	movsx  edx,BYTE PTR [rax+0x1]
    322b:	0f be 00             	movsx  eax,BYTE PTR [rax]
    322e:	8d 8c d0 17 fe ff ff 	lea    ecx,[rax+rdx*8-0x1e9]
    3235:	b8 01 00 00 00       	mov    eax,0x1
    323a:	48 d3 e0             	shl    rax,cl
    323d:	c3                   	ret    
    323e:	66 90                	xchg   ax,ax

0000000000003240 <_ZN8Bitboard16squareString2numENSt7__cxx1112basic_stringIcSt11char_traitsIcESaIcEEE>:
    3240:	f3 0f 1e fa          	endbr64 
    3244:	48 8b 07             	mov    rax,QWORD PTR [rdi]
    3247:	0f be 50 01          	movsx  edx,BYTE PTR [rax+0x1]
    324b:	0f be 00             	movsx  eax,BYTE PTR [rax]
    324e:	8d 84 d0 17 fe ff ff 	lea    eax,[rax+rdx*8-0x1e9]
    3255:	48 98                	cdqe   
    3257:	c3                   	ret    
    3258:	0f 1f 84 00 00 00 00 	nop    DWORD PTR [rax+rax*1+0x0]
    325f:	00 

0000000000003260 <_ZN8Bitboard12bitboard2strB5cxx11Emic>:
    3260:	f3 0f 1e fa          	endbr64 
    3264:	41 57                	push   r15
    3266:	48 8d 47 10          	lea    rax,[rdi+0x10]
    326a:	49 89 f7             	mov    r15,rsi
    326d:	41 56                	push   r14
    326f:	41 89 d6             	mov    r14d,edx
    3272:	41 55                	push   r13
    3274:	41 bd 40 00 00 00    	mov    r13d,0x40
    327a:	41 54                	push   r12
    327c:	49 89 fc             	mov    r12,rdi
    327f:	55                   	push   rbp
    3280:	31 ed                	xor    ebp,ebp
    3282:	53                   	push   rbx
    3283:	48 83 ec 28          	sub    rsp,0x28
    3287:	48 89 07             	mov    QWORD PTR [rdi],rax
    328a:	88 4c 24 1f          	mov    BYTE PTR [rsp+0x1f],cl
    328e:	48 89 44 24 10       	mov    QWORD PTR [rsp+0x10],rax
    3293:	48 c7 47 08 00 00 00 	mov    QWORD PTR [rdi+0x8],0x0
    329a:	00 
    329b:	c6 47 10 00          	mov    BYTE PTR [rdi+0x10],0x0
    329f:	90                   	nop
    32a0:	41 8d 45 f8          	lea    eax,[r13-0x8]
    32a4:	89 44 24 18          	mov    DWORD PTR [rsp+0x18],eax
    32a8:	89 c3                	mov    ebx,eax
    32aa:	eb 2e                	jmp    32da <_ZN8Bitboard12bitboard2strB5cxx11Emic+0x7a>
    32ac:	0f 1f 40 00          	nop    DWORD PTR [rax+0x0]
    32b0:	48 39 c5             	cmp    rbp,rax
    32b3:	0f 84 29 01 00 00    	je     33e2 <_ZN8Bitboard12bitboard2strB5cxx11Emic+0x182>
    32b9:	ba 01 00 00 00       	mov    edx,0x1
    32be:	48 8d 35 90 2d 00 00 	lea    rsi,[rip+0x2d90]        # 6055 <_IO_stdin_used+0x55>
    32c5:	4c 89 e7             	mov    rdi,r12
    32c8:	e8 63 f0 ff ff       	call   2330 <_ZNSt7__cxx1112basic_stringIcSt11char_traitsIcESaIcEE9_M_appendEPKcm@plt>
    32cd:	83 c3 01             	add    ebx,0x1
    32d0:	49 8b 6c 24 08       	mov    rbp,QWORD PTR [r12+0x8]
    32d5:	44 39 eb             	cmp    ebx,r13d
    32d8:	74 43                	je     331d <_ZN8Bitboard12bitboard2strB5cxx11Emic+0xbd>
    32da:	41 39 de             	cmp    r14d,ebx
    32dd:	0f 84 7d 00 00 00    	je     3360 <_ZN8Bitboard12bitboard2strB5cxx11Emic+0x100>
    32e3:	48 b8 ff ff ff ff ff 	movabs rax,0x3fffffffffffffff
    32ea:	ff ff 3f 
    32ed:	49 0f a3 df          	bt     r15,rbx
    32f1:	72 bd                	jb     32b0 <_ZN8Bitboard12bitboard2strB5cxx11Emic+0x50>
    32f3:	48 39 c5             	cmp    rbp,rax
    32f6:	0f 84 f2 00 00 00    	je     33ee <_ZN8Bitboard12bitboard2strB5cxx11Emic+0x18e>
    32fc:	ba 01 00 00 00       	mov    edx,0x1
    3301:	48 8d 35 4f 2d 00 00 	lea    rsi,[rip+0x2d4f]        # 6057 <_IO_stdin_used+0x57>
    3308:	4c 89 e7             	mov    rdi,r12
    330b:	e8 20 f0 ff ff       	call   2330 <_ZNSt7__cxx1112basic_stringIcSt11char_traitsIcESaIcEE9_M_appendEPKcm@plt>
    3310:	83 c3 01             	add    ebx,0x1
    3313:	49 8b 6c 24 08       	mov    rbp,QWORD PTR [r12+0x8]
    3318:	44 39 eb             	cmp    ebx,r13d
    331b:	75 bd                	jne    32da <_ZN8Bitboard12bitboard2strB5cxx11Emic+0x7a>
    331d:	48 b8 ff ff ff ff ff 	movabs rax,0x3fffffffffffffff
    3324:	ff ff 3f 
    3327:	48 39 c5             	cmp    rbp,rax
    332a:	0f 84 ca 00 00 00    	je     33fa <_ZN8Bitboard12bitboard2strB5cxx11Emic+0x19a>
    3330:	ba 01 00 00 00       	mov    edx,0x1
    3335:	48 8d 35 d1 2d 00 00 	lea    rsi,[rip+0x2dd1]        # 610d <_IO_stdin_used+0x10d>
    333c:	4c 89 e7             	mov    rdi,r12
    333f:	e8 ec ef ff ff       	call   2330 <_ZNSt7__cxx1112basic_stringIcSt11char_traitsIcESaIcEE9_M_appendEPKcm@plt>
    3344:	44 8b 6c 24 18       	mov    r13d,DWORD PTR [rsp+0x18]
    3349:	45 85 ed             	test   r13d,r13d
    334c:	0f 84 7e 00 00 00    	je     33d0 <_ZN8Bitboard12bitboard2strB5cxx11Emic+0x170>
    3352:	49 8b 6c 24 08       	mov    rbp,QWORD PTR [r12+0x8]
    3357:	e9 44 ff ff ff       	jmp    32a0 <_ZN8Bitboard12bitboard2strB5cxx11Emic+0x40>
    335c:	0f 1f 40 00          	nop    DWORD PTR [rax+0x0]
    3360:	48 8d 45 01          	lea    rax,[rbp+0x1]
    3364:	48 89 44 24 08       	mov    QWORD PTR [rsp+0x8],rax
    3369:	49 8b 04 24          	mov    rax,QWORD PTR [r12]
    336d:	48 39 44 24 10       	cmp    QWORD PTR [rsp+0x10],rax
    3372:	74 4c                	je     33c0 <_ZN8Bitboard12bitboard2strB5cxx11Emic+0x160>
    3374:	49 8b 54 24 10       	mov    rdx,QWORD PTR [r12+0x10]
    3379:	48 39 54 24 08       	cmp    QWORD PTR [rsp+0x8],rdx
    337e:	77 20                	ja     33a0 <_ZN8Bitboard12bitboard2strB5cxx11Emic+0x140>
    3380:	0f b6 54 24 1f       	movzx  edx,BYTE PTR [rsp+0x1f]
    3385:	48 8b 4c 24 08       	mov    rcx,QWORD PTR [rsp+0x8]
    338a:	88 14 28             	mov    BYTE PTR [rax+rbp*1],dl
    338d:	49 8b 04 24          	mov    rax,QWORD PTR [r12]
    3391:	49 89 4c 24 08       	mov    QWORD PTR [r12+0x8],rcx
    3396:	c6 04 08 00          	mov    BYTE PTR [rax+rcx*1],0x0
    339a:	e9 2e ff ff ff       	jmp    32cd <_ZN8Bitboard12bitboard2strB5cxx11Emic+0x6d>
    339f:	90                   	nop
    33a0:	41 b8 01 00 00 00    	mov    r8d,0x1
    33a6:	31 c9                	xor    ecx,ecx
    33a8:	31 d2                	xor    edx,edx
    33aa:	48 89 ee             	mov    rsi,rbp
    33ad:	4c 89 e7             	mov    rdi,r12
    33b0:	e8 9b f1 ff ff       	call   2550 <_ZNSt7__cxx1112basic_stringIcSt11char_traitsIcESaIcEE9_M_mutateEmmPKcm@plt>
    33b5:	49 8b 04 24          	mov    rax,QWORD PTR [r12]
    33b9:	eb c5                	jmp    3380 <_ZN8Bitboard12bitboard2strB5cxx11Emic+0x120>
    33bb:	0f 1f 44 00 00       	nop    DWORD PTR [rax+rax*1+0x0]
    33c0:	ba 0f 00 00 00       	mov    edx,0xf
    33c5:	eb b2                	jmp    3379 <_ZN8Bitboard12bitboard2strB5cxx11Emic+0x119>
    33c7:	66 0f 1f 84 00 00 00 	nop    WORD PTR [rax+rax*1+0x0]
    33ce:	00 00 
    33d0:	48 83 c4 28          	add    rsp,0x28
    33d4:	4c 89 e0             	mov    rax,r12
    33d7:	5b                   	pop    rbx
    33d8:	5d                   	pop    rbp
    33d9:	41 5c                	pop    r12
    33db:	41 5d                	pop    r13
    33dd:	41 5e                	pop    r14
    33df:	41 5f                	pop    r15
    33e1:	c3                   	ret    
    33e2:	48 8d 3d 57 2c 00 00 	lea    rdi,[rip+0x2c57]        # 6040 <_IO_stdin_used+0x40>
    33e9:	e8 92 ef ff ff       	call   2380 <_ZSt20__throw_length_errorPKc@plt>
    33ee:	48 8d 3d 4b 2c 00 00 	lea    rdi,[rip+0x2c4b]        # 6040 <_IO_stdin_used+0x40>
    33f5:	e8 86 ef ff ff       	call   2380 <_ZSt20__throw_length_errorPKc@plt>
    33fa:	48 8d 3d 3f 2c 00 00 	lea    rdi,[rip+0x2c3f]        # 6040 <_IO_stdin_used+0x40>
    3401:	e8 7a ef ff ff       	call   2380 <_ZSt20__throw_length_errorPKc@plt>
    3406:	f3 0f 1e fa          	endbr64 
    340a:	48 89 c5             	mov    rbp,rax
    340d:	e9 c2 f1 ff ff       	jmp    25d4 <_ZN8Bitboard12bitboard2strB5cxx11Emic.cold>
    3412:	66 66 2e 0f 1f 84 00 	data16 nop WORD PTR cs:[rax+rax*1+0x0]
    3419:	00 00 00 00 
    341d:	0f 1f 00             	nop    DWORD PTR [rax]

0000000000003420 <_ZN8Bitboard11wPushPawns1Em>:
    3420:	f3 0f 1e fa          	endbr64 
    3424:	48 8b 17             	mov    rdx,QWORD PTR [rdi]
    3427:	48 89 f0             	mov    rax,rsi
    342a:	48 0b 57 08          	or     rdx,QWORD PTR [rdi+0x8]
    342e:	48 f7 d2             	not    rdx
    3431:	48 c1 e0 08          	shl    rax,0x8
    3435:	48 21 d0             	and    rax,rdx
    3438:	c3                   	ret    
    3439:	90                   	nop
    343a:	66 0f 1f 44 00 00    	nop    WORD PTR [rax+rax*1+0x0]

0000000000003440 <_ZN8Bitboard11wPushPawns2Em>:
    3440:	f3 0f 1e fa          	endbr64 
    3444:	48 8b 07             	mov    rax,QWORD PTR [rdi]
    3447:	48 0b 47 08          	or     rax,QWORD PTR [rdi+0x8]
    344b:	48 f7 d0             	not    rax
    344e:	48 89 c2             	mov    rdx,rax
    3451:	48 89 f0             	mov    rax,rsi
    3454:	48 c1 e0 08          	shl    rax,0x8
    3458:	48 21 d0             	and    rax,rdx
    345b:	48 c1 e0 08          	shl    rax,0x8
    345f:	48 21 d0             	and    rax,rdx
    3462:	25 00 00 00 ff       	and    eax,0xff000000
    3467:	c3                   	ret    
    3468:	0f 1f 84 00 00 00 00 	nop    DWORD PTR [rax+rax*1+0x0]
    346f:	00 

0000000000003470 <_ZN8Bitboard11bPushPawns1Em>:
    3470:	f3 0f 1e fa          	endbr64 
    3474:	48 8b 17             	mov    rdx,QWORD PTR [rdi]
    3477:	48 89 f0             	mov    rax,rsi
    347a:	48 0b 57 08          	or     rdx,QWORD PTR [rdi+0x8]
    347e:	48 f7 d2             	not    rdx
    3481:	48 c1 e8 08          	shr    rax,0x8
    3485:	48 21 d0             	and    rax,rdx
    3488:	c3                   	ret    
    3489:	90                   	nop
    348a:	66 0f 1f 44 00 00    	nop    WORD PTR [rax+rax*1+0x0]

0000000000003490 <_ZN8Bitboard11bPushPawns2Em>:
    3490:	f3 0f 1e fa          	endbr64 
    3494:	48 8b 07             	mov    rax,QWORD PTR [rdi]
    3497:	48 0b 47 08          	or     rax,QWORD PTR [rdi+0x8]
    349b:	48 f7 d0             	not    rax
    349e:	48 89 c2             	mov    rdx,rax
    34a1:	48 89 f0             	mov    rax,rsi
    34a4:	48 be 00 00 00 00 ff 	movabs rsi,0xff00000000
    34ab:	00 00 00 
    34ae:	48 c1 e8 08          	shr    rax,0x8
    34b2:	48 21 d0             	and    rax,rdx
    34b5:	48 c1 e8 08          	shr    rax,0x8
    34b9:	48 21 d0             	and    rax,rdx
    34bc:	48 21 f0             	and    rax,rsi
    34bf:	c3                   	ret    

00000000000034c0 <_ZN8Bitboard16wPawnEastAttacksEm>:
    34c0:	f3 0f 1e fa          	endbr64 
    34c4:	48 89 f0             	mov    rax,rsi
    34c7:	48 be 00 fe fe fe fe 	movabs rsi,0xfefefefefefefe00
    34ce:	fe fe fe 
    34d1:	48 c1 e0 09          	shl    rax,0x9
    34d5:	48 21 f0             	and    rax,rsi
    34d8:	c3                   	ret    
    34d9:	90                   	nop
    34da:	66 0f 1f 44 00 00    	nop    WORD PTR [rax+rax*1+0x0]

00000000000034e0 <_ZN8Bitboard16wPawnWestAttacksEm>:
    34e0:	f3 0f 1e fa          	endbr64 
    34e4:	48 89 f0             	mov    rax,rsi
    34e7:	48 be 00 7f 7f 7f 7f 	movabs rsi,0x7f7f7f7f7f7f7f00
    34ee:	7f 7f 7f 
    34f1:	48 c1 e0 07          	shl    rax,0x7
    34f5:	48 21 f0             	and    rax,rsi
    34f8:	c3                   	ret    
    34f9:	90                   	nop
    34fa:	66 0f 1f 44 00 00    	nop    WORD PTR [rax+rax*1+0x0]

0000000000003500 <_ZN8Bitboard16bPawnEastAttacksEm>:
    3500:	f3 0f 1e fa          	endbr64 
    3504:	48 89 f0             	mov    rax,rsi
    3507:	48 be fe fe fe fe fe 	movabs rsi,0xfefefefefefefe
    350e:	fe fe 00 
    3511:	48 c1 e8 07          	shr    rax,0x7
    3515:	48 21 f0             	and    rax,rsi
    3518:	c3                   	ret    
    3519:	90                   	nop
    351a:	66 0f 1f 44 00 00    	nop    WORD PTR [rax+rax*1+0x0]

0000000000003520 <_ZN8Bitboard16bPawnWestAttacksEm>:
    3520:	f3 0f 1e fa          	endbr64 
    3524:	48 89 f0             	mov    rax,rsi
    3527:	48 be 7f 7f 7f 7f 7f 	movabs rsi,0x7f7f7f7f7f7f7f
    352e:	7f 7f 00 
    3531:	48 c1 e8 09          	shr    rax,0x9
    3535:	48 21 f0             	and    rax,rsi
    3538:	c3                   	ret    
    3539:	90                   	nop
    353a:	66 0f 1f 44 00 00    	nop    WORD PTR [rax+rax*1+0x0]

0000000000003540 <_ZN8Bitboard21getPositiveRayAttacksEim>:
    3540:	f3 0f 1e fa          	endbr64 
    3544:	48 63 f6             	movsxd rsi,esi
    3547:	48 8d 0d 32 5e 00 00 	lea    rcx,[rip+0x5e32]        # 9380 <_ZN9constants10rayAttacksE>
    354e:	48 8d 04 d6          	lea    rax,[rsi+rdx*8]
    3552:	48 8b 17             	mov    rdx,QWORD PTR [rdi]
    3555:	48 0b 57 08          	or     rdx,QWORD PTR [rdi+0x8]
    3559:	48 8b 04 c1          	mov    rax,QWORD PTR [rcx+rax*8]
    355d:	48 21 c2             	and    rdx,rax
    3560:	48 0f ba ea 3f       	bts    rdx,0x3f
    3565:	f3 48 0f bc d2       	tzcnt  rdx,rdx
    356a:	48 63 d2             	movsxd rdx,edx
    356d:	48 8d 14 d6          	lea    rdx,[rsi+rdx*8]
    3571:	48 33 04 d1          	xor    rax,QWORD PTR [rcx+rdx*8]
    3575:	c3                   	ret    
    3576:	66 2e 0f 1f 84 00 00 	nop    WORD PTR cs:[rax+rax*1+0x0]
    357d:	00 00 00 

0000000000003580 <_ZN8Bitboard21getNegativeRayAttacksEim>:
    3580:	f3 0f 1e fa          	endbr64 
    3584:	48 63 f6             	movsxd rsi,esi
    3587:	48 8d 0d f2 5d 00 00 	lea    rcx,[rip+0x5df2]        # 9380 <_ZN9constants10rayAttacksE>
    358e:	48 8d 04 d6          	lea    rax,[rsi+rdx*8]
    3592:	48 8b 17             	mov    rdx,QWORD PTR [rdi]
    3595:	48 0b 57 08          	or     rdx,QWORD PTR [rdi+0x8]
    3599:	48 8b 04 c1          	mov    rax,QWORD PTR [rcx+rax*8]
    359d:	48 21 c2             	and    rdx,rax
    35a0:	48 83 ca 01          	or     rdx,0x1
    35a4:	48 0f bd d2          	bsr    rdx,rdx
    35a8:	48 63 d2             	movsxd rdx,edx
    35ab:	48 8d 14 d6          	lea    rdx,[rsi+rdx*8]
    35af:	48 33 04 d1          	xor    rax,QWORD PTR [rcx+rdx*8]
    35b3:	c3                   	ret    
    35b4:	66 66 2e 0f 1f 84 00 	data16 nop WORD PTR cs:[rax+rax*1+0x0]
    35bb:	00 00 00 00 
    35bf:	90                   	nop

00000000000035c0 <_ZN8Bitboard16getBishopAttacksEmh>:
    35c0:	f3 0f 1e fa          	endbr64 
    35c4:	4c 8d 05 b5 5d 00 00 	lea    r8,[rip+0x5db5]        # 9380 <_ZN9constants10rayAttacksE>
    35cb:	48 c1 e6 06          	shl    rsi,0x6
    35cf:	53                   	push   rbx
    35d0:	41 89 d1             	mov    r9d,edx
    35d3:	4c 01 c6             	add    rsi,r8
    35d6:	48 8b 17             	mov    rdx,QWORD PTR [rdi]
    35d9:	48 0b 57 08          	or     rdx,QWORD PTR [rdi+0x8]
    35dd:	45 0f b6 c9          	movzx  r9d,r9b
    35e1:	4c 8b 16             	mov    r10,QWORD PTR [rsi]
    35e4:	4c 8b 5e 10          	mov    r11,QWORD PTR [rsi+0x10]
    35e8:	48 bb 00 00 00 00 00 	movabs rbx,0x8000000000000000
    35ef:	00 00 80 
    35f2:	4c 89 d1             	mov    rcx,r10
    35f5:	4c 89 d8             	mov    rax,r11
    35f8:	48 21 d1             	and    rcx,rdx
    35fb:	48 21 d0             	and    rax,rdx
    35fe:	48 09 d9             	or     rcx,rbx
    3601:	48 09 d8             	or     rax,rbx
    3604:	5b                   	pop    rbx
    3605:	f3 48 0f bc c0       	tzcnt  rax,rax
    360a:	f3 48 0f bc c9       	tzcnt  rcx,rcx
    360f:	48 98                	cdqe   
    3611:	48 63 c9             	movsxd rcx,ecx
    3614:	48 c1 e0 06          	shl    rax,0x6
    3618:	48 c1 e1 06          	shl    rcx,0x6
    361c:	4d 33 5c 00 10       	xor    r11,QWORD PTR [r8+rax*1+0x10]
    3621:	4d 33 14 08          	xor    r10,QWORD PTR [r8+rcx*1]
    3625:	4d 09 da             	or     r10,r11
    3628:	4c 8b 5e 30          	mov    r11,QWORD PTR [rsi+0x30]
    362c:	4a 8b 04 cf          	mov    rax,QWORD PTR [rdi+r9*8]
    3630:	4c 89 d9             	mov    rcx,r11
    3633:	48 f7 d0             	not    rax
    3636:	48 21 d1             	and    rcx,rdx
    3639:	48 83 c9 01          	or     rcx,0x1
    363d:	48 0f bd c9          	bsr    rcx,rcx
    3641:	48 63 c9             	movsxd rcx,ecx
    3644:	48 c1 e1 06          	shl    rcx,0x6
    3648:	4d 33 5c 08 30       	xor    r11,QWORD PTR [r8+rcx*1+0x30]
    364d:	48 8b 4e 20          	mov    rcx,QWORD PTR [rsi+0x20]
    3651:	4d 09 d3             	or     r11,r10
    3654:	48 21 ca             	and    rdx,rcx
    3657:	48 83 ca 01          	or     rdx,0x1
    365b:	48 0f bd d2          	bsr    rdx,rdx
    365f:	48 63 d2             	movsxd rdx,edx
    3662:	48 c1 e2 06          	shl    rdx,0x6
    3666:	49 33 4c 10 20       	xor    rcx,QWORD PTR [r8+rdx*1+0x20]
    366b:	4c 09 d9             	or     rcx,r11
    366e:	48 21 c8             	and    rax,rcx
    3671:	c3                   	ret    
    3672:	66 66 2e 0f 1f 84 00 	data16 nop WORD PTR cs:[rax+rax*1+0x0]
    3679:	00 00 00 00 
    367d:	0f 1f 00             	nop    DWORD PTR [rax]

0000000000003680 <_ZN8Bitboard14getRookAttacksEmh>:
    3680:	f3 0f 1e fa          	endbr64 
    3684:	4c 8d 05 f5 5c 00 00 	lea    r8,[rip+0x5cf5]        # 9380 <_ZN9constants10rayAttacksE>
    368b:	48 c1 e6 06          	shl    rsi,0x6
    368f:	53                   	push   rbx
    3690:	41 89 d1             	mov    r9d,edx
    3693:	4c 01 c6             	add    rsi,r8
    3696:	48 8b 17             	mov    rdx,QWORD PTR [rdi]
    3699:	48 0b 57 08          	or     rdx,QWORD PTR [rdi+0x8]
    369d:	45 0f b6 c9          	movzx  r9d,r9b
    36a1:	4c 8b 56 08          	mov    r10,QWORD PTR [rsi+0x8]
    36a5:	4c 8b 5e 18          	mov    r11,QWORD PTR [rsi+0x18]
    36a9:	48 bb 00 00 00 00 00 	movabs rbx,0x8000000000000000
    36b0:	00 00 80 
    36b3:	4c 89 d1             	mov    rcx,r10
    36b6:	4c 89 d8             	mov    rax,r11
    36b9:	48 21 d1             	and    rcx,rdx
    36bc:	48 21 d0             	and    rax,rdx
    36bf:	48 09 d9             	or     rcx,rbx
    36c2:	48 09 d8             	or     rax,rbx
    36c5:	5b                   	pop    rbx
    36c6:	f3 48 0f bc c0       	tzcnt  rax,rax
    36cb:	f3 48 0f bc c9       	tzcnt  rcx,rcx
    36d0:	48 98                	cdqe   
    36d2:	48 63 c9             	movsxd rcx,ecx
    36d5:	48 c1 e0 06          	shl    rax,0x6
    36d9:	48 c1 e1 06          	shl    rcx,0x6
    36dd:	4d 33 5c 00 18       	xor    r11,QWORD PTR [r8+rax*1+0x18]
    36e2:	4d 33 54 08 08       	xor    r10,QWORD PTR [r8+rcx*1+0x8]
    36e7:	4d 09 da             	or     r10,r11
    36ea:	4c 8b 5e 28          	mov    r11,QWORD PTR [rsi+0x28]
    36ee:	4a 8b 04 cf          	mov    rax,QWORD PTR [rdi+r9*8]
    36f2:	4c 89 d9             	mov    rcx,r11
    36f5:	48 f7 d0             	not    rax
    36f8:	48 21 d1             	and    rcx,rdx
    36fb:	48 83 c9 01          	or     rcx,0x1
    36ff:	48 0f bd c9          	bsr    rcx,rcx
    3703:	48 63 c9             	movsxd rcx,ecx
    3706:	48 c1 e1 06          	shl    rcx,0x6
    370a:	4d 33 5c 08 28       	xor    r11,QWORD PTR [r8+rcx*1+0x28]
    370f:	48 8b 4e 38          	mov    rcx,QWORD PTR [rsi+0x38]
    3713:	4d 09 d3             	or     r11,r10
    3716:	48 21 ca             	and    rdx,rcx
    3719:	48 83 ca 01          	or     rdx,0x1
    371d:	48 0f bd d2          	bsr    rdx,rdx
    3721:	48 63 d2             	movsxd rdx,edx
    3724:	48 c1 e2 06          	shl    rdx,0x6
    3728:	49 33 4c 10 38       	xor    rcx,QWORD PTR [r8+rdx*1+0x38]
    372d:	4c 09 d9             	or     rcx,r11
    3730:	48 21 c8             	and    rax,rcx
    3733:	c3                   	ret    
    3734:	66 66 2e 0f 1f 84 00 	data16 nop WORD PTR cs:[rax+rax*1+0x0]
    373b:	00 00 00 00 
    373f:	90                   	nop

0000000000003740 <_ZN8Bitboard15getQueenAttacksEmh>:
    3740:	f3 0f 1e fa          	endbr64 
    3744:	41 54                	push   r12
    3746:	44 0f b6 e2          	movzx  r12d,dl
    374a:	55                   	push   rbp
    374b:	44 89 e2             	mov    edx,r12d
    374e:	48 89 f5             	mov    rbp,rsi
    3751:	53                   	push   rbx
    3752:	e8 29 ff ff ff       	call   3680 <_ZN8Bitboard14getRookAttacksEmh>
    3757:	44 89 e2             	mov    edx,r12d
    375a:	48 89 ee             	mov    rsi,rbp
    375d:	48 89 c3             	mov    rbx,rax
    3760:	e8 5b fe ff ff       	call   35c0 <_ZN8Bitboard16getBishopAttacksEmh>
    3765:	48 09 d8             	or     rax,rbx
    3768:	5b                   	pop    rbx
    3769:	5d                   	pop    rbp
    376a:	41 5c                	pop    r12
    376c:	c3                   	ret    
    376d:	90                   	nop
    376e:	66 90                	xchg   ax,ax

0000000000003770 <_ZN8Bitboard13getAllAttacksEh>:
    3770:	f3 0f 1e fa          	endbr64 
    3774:	40 0f b6 c6          	movzx  eax,sil
    3778:	41 57                	push   r15
    377a:	48 8b 57 10          	mov    rdx,QWORD PTR [rdi+0x10]
    377e:	41 56                	push   r14
    3780:	41 55                	push   r13
    3782:	4c 8b 2c c7          	mov    r13,QWORD PTR [rdi+rax*8]
    3786:	41 54                	push   r12
    3788:	44 0f b6 e6          	movzx  r12d,sil
    378c:	4c 21 ea             	and    rdx,r13
    378f:	55                   	push   rbp
    3790:	48 89 d0             	mov    rax,rdx
    3793:	53                   	push   rbx
    3794:	40 84 f6             	test   sil,sil
    3797:	0f 85 b3 01 00 00    	jne    3950 <_ZN8Bitboard13getAllAttacksEh+0x1e0>
    379d:	48 bb 00 7f 7f 7f 7f 	movabs rbx,0x7f7f7f7f7f7f7f00
    37a4:	7f 7f 7f 
    37a7:	48 c1 e0 07          	shl    rax,0x7
    37ab:	48 21 d8             	and    rax,rbx
    37ae:	48 c1 e2 09          	shl    rdx,0x9
    37b2:	48 bb 00 fe fe fe fe 	movabs rbx,0xfefefefefefefe00
    37b9:	fe fe fe 
    37bc:	48 21 da             	and    rdx,rbx
    37bf:	48 09 d0             	or     rax,rdx
    37c2:	48 23 47 08          	and    rax,QWORD PTR [rdi+0x8]
    37c6:	48 8b 57 18          	mov    rdx,QWORD PTR [rdi+0x18]
    37ca:	4c 89 ed             	mov    rbp,r13
    37cd:	49 ba 7f 7f 7f 7f 7f 	movabs r10,0x7f7f7f7f7f7f7f7f
    37d4:	7f 7f 7f 
    37d7:	48 bb fe fe fe fe fe 	movabs rbx,0xfefefefefefefefe
    37de:	fe fe fe 
    37e1:	4c 21 ea             	and    rdx,r13
    37e4:	49 89 d0             	mov    r8,rdx
    37e7:	48 8d 0c 12          	lea    rcx,[rdx+rdx*1]
    37eb:	48 89 d6             	mov    rsi,rdx
    37ee:	48 c1 e2 02          	shl    rdx,0x2
    37f2:	49 d1 e8             	shr    r8,1
    37f5:	48 21 d9             	and    rcx,rbx
    37f8:	48 c1 ee 02          	shr    rsi,0x2
    37fc:	4d 21 d0             	and    r8,r10
    37ff:	49 09 c8             	or     r8,rcx
    3802:	48 b9 3f 3f 3f 3f 3f 	movabs rcx,0x3f3f3f3f3f3f3f3f
    3809:	3f 3f 3f 
    380c:	48 21 ce             	and    rsi,rcx
    380f:	48 b9 fc fc fc fc fc 	movabs rcx,0xfcfcfcfcfcfcfcfc
    3816:	fc fc fc 
    3819:	48 21 ca             	and    rdx,rcx
    381c:	48 8b 4f 38          	mov    rcx,QWORD PTR [rdi+0x38]
    3820:	48 09 d6             	or     rsi,rdx
    3823:	4c 89 c2             	mov    rdx,r8
    3826:	4c 21 e9             	and    rcx,r13
    3829:	48 c1 e2 10          	shl    rdx,0x10
    382d:	4c 8d 0c 09          	lea    r9,[rcx+rcx*1]
    3831:	4c 21 cb             	and    rbx,r9
    3834:	49 89 c9             	mov    r9,rcx
    3837:	49 d1 e9             	shr    r9,1
    383a:	4d 21 d1             	and    r9,r10
    383d:	49 09 d9             	or     r9,rbx
    3840:	4c 89 c3             	mov    rbx,r8
    3843:	48 c1 eb 10          	shr    rbx,0x10
    3847:	4c 09 c9             	or     rcx,r9
    384a:	48 09 d3             	or     rbx,rdx
    384d:	48 89 f2             	mov    rdx,rsi
    3850:	48 c1 ee 08          	shr    rsi,0x8
    3854:	48 c1 e2 08          	shl    rdx,0x8
    3858:	4c 09 cb             	or     rbx,r9
    385b:	48 09 d3             	or     rbx,rdx
    385e:	48 89 ca             	mov    rdx,rcx
    3861:	48 c1 e9 08          	shr    rcx,0x8
    3865:	48 09 f3             	or     rbx,rsi
    3868:	48 c1 e2 08          	shl    rdx,0x8
    386c:	48 09 d3             	or     rbx,rdx
    386f:	48 09 cb             	or     rbx,rcx
    3872:	48 09 c3             	or     rbx,rax
    3875:	48 23 6f 28          	and    rbp,QWORD PTR [rdi+0x28]
    3879:	74 39                	je     38b4 <_ZN8Bitboard13getAllAttacksEh+0x144>
    387b:	49 c7 c7 ff ff ff ff 	mov    r15,0xffffffffffffffff
    3882:	66 0f 1f 44 00 00    	nop    WORD PTR [rax+rax*1+0x0]
    3888:	48 0f bc cd          	bsf    rcx,rbp
    388c:	44 89 e2             	mov    edx,r12d
    388f:	49 0f 44 cf          	cmove  rcx,r15
    3893:	48 63 f1             	movsxd rsi,ecx
    3896:	49 89 ce             	mov    r14,rcx
    3899:	e8 e2 fd ff ff       	call   3680 <_ZN8Bitboard14getRookAttacksEmh>
    389e:	44 89 f1             	mov    ecx,r14d
    38a1:	48 09 c3             	or     rbx,rax
    38a4:	b8 01 00 00 00       	mov    eax,0x1
    38a9:	48 d3 e0             	shl    rax,cl
    38ac:	48 f7 d0             	not    rax
    38af:	48 21 c5             	and    rbp,rax
    38b2:	75 d4                	jne    3888 <_ZN8Bitboard13getAllAttacksEh+0x118>
    38b4:	4c 89 ed             	mov    rbp,r13
    38b7:	48 23 6f 20          	and    rbp,QWORD PTR [rdi+0x20]
    38bb:	74 37                	je     38f4 <_ZN8Bitboard13getAllAttacksEh+0x184>
    38bd:	49 c7 c7 ff ff ff ff 	mov    r15,0xffffffffffffffff
    38c4:	0f 1f 40 00          	nop    DWORD PTR [rax+0x0]
    38c8:	48 0f bc cd          	bsf    rcx,rbp
    38cc:	44 89 e2             	mov    edx,r12d
    38cf:	49 0f 44 cf          	cmove  rcx,r15
    38d3:	48 63 f1             	movsxd rsi,ecx
    38d6:	49 89 ce             	mov    r14,rcx
    38d9:	e8 e2 fc ff ff       	call   35c0 <_ZN8Bitboard16getBishopAttacksEmh>
    38de:	44 89 f1             	mov    ecx,r14d
    38e1:	48 09 c3             	or     rbx,rax
    38e4:	b8 01 00 00 00       	mov    eax,0x1
    38e9:	48 d3 e0             	shl    rax,cl
    38ec:	48 f7 d0             	not    rax
    38ef:	48 21 c5             	and    rbp,rax
    38f2:	75 d4                	jne    38c8 <_ZN8Bitboard13getAllAttacksEh+0x158>
    38f4:	4c 89 ed             	mov    rbp,r13
    38f7:	48 23 6f 30          	and    rbp,QWORD PTR [rdi+0x30]
    38fb:	74 37                	je     3934 <_ZN8Bitboard13getAllAttacksEh+0x1c4>
    38fd:	49 c7 c7 ff ff ff ff 	mov    r15,0xffffffffffffffff
    3904:	0f 1f 40 00          	nop    DWORD PTR [rax+0x0]
    3908:	48 0f bc cd          	bsf    rcx,rbp
    390c:	44 89 e2             	mov    edx,r12d
    390f:	49 0f 44 cf          	cmove  rcx,r15
    3913:	48 63 f1             	movsxd rsi,ecx
    3916:	49 89 ce             	mov    r14,rcx
    3919:	e8 22 fe ff ff       	call   3740 <_ZN8Bitboard15getQueenAttacksEmh>
    391e:	44 89 f1             	mov    ecx,r14d
    3921:	48 09 c3             	or     rbx,rax
    3924:	b8 01 00 00 00       	mov    eax,0x1
    3929:	48 d3 e0             	shl    rax,cl
    392c:	48 f7 d0             	not    rax
    392f:	48 21 c5             	and    rbp,rax
    3932:	75 d4                	jne    3908 <_ZN8Bitboard13getAllAttacksEh+0x198>
    3934:	4c 89 e8             	mov    rax,r13
    3937:	48 f7 d0             	not    rax
    393a:	48 21 d8             	and    rax,rbx
    393d:	5b                   	pop    rbx
    393e:	5d                   	pop    rbp
    393f:	41 5c                	pop    r12
    3941:	41 5d                	pop    r13
    3943:	41 5e                	pop    r14
    3945:	41 5f                	pop    r15
    3947:	c3                   	ret    
    3948:	0f 1f 84 00 00 00 00 	nop    DWORD PTR [rax+rax*1+0x0]
    394f:	00 
    3950:	48 bb fe fe fe fe fe 	movabs rbx,0xfefefefefefefe
    3957:	fe fe 00 
    395a:	48 c1 e8 07          	shr    rax,0x7
    395e:	48 21 d8             	and    rax,rbx
    3961:	48 c1 ea 09          	shr    rdx,0x9
    3965:	48 bb 7f 7f 7f 7f 7f 	movabs rbx,0x7f7f7f7f7f7f7f
    396c:	7f 7f 00 
    396f:	48 21 da             	and    rdx,rbx
    3972:	48 09 d0             	or     rax,rdx
    3975:	48 23 07             	and    rax,QWORD PTR [rdi]
    3978:	e9 49 fe ff ff       	jmp    37c6 <_ZN8Bitboard13getAllAttacksEh+0x56>
    397d:	90                   	nop
    397e:	66 90                	xchg   ax,ax

0000000000003980 <_ZN8Bitboard8addPieceEjjh>:
    3980:	f3 0f 1e fa          	endbr64 
    3984:	89 d2                	mov    edx,edx
    3986:	b8 01 00 00 00       	mov    eax,0x1
    398b:	89 f6                	mov    esi,esi
    398d:	48 d3 e0             	shl    rax,cl
    3990:	48 09 04 d7          	or     QWORD PTR [rdi+rdx*8],rax
    3994:	48 09 44 f7 10       	or     QWORD PTR [rdi+rsi*8+0x10],rax
    3999:	c3                   	ret    
    399a:	66 0f 1f 44 00 00    	nop    WORD PTR [rax+rax*1+0x0]

00000000000039a0 <_ZN8Bitboard11removePieceEjjh>:
    39a0:	f3 0f 1e fa          	endbr64 
    39a4:	89 d2                	mov    edx,edx
    39a6:	48 c7 c0 fe ff ff ff 	mov    rax,0xfffffffffffffffe
    39ad:	89 f6                	mov    esi,esi
    39af:	48 d3 c0             	rol    rax,cl
    39b2:	48 21 04 d7          	and    QWORD PTR [rdi+rdx*8],rax
    39b6:	48 21 44 f7 10       	and    QWORD PTR [rdi+rsi*8+0x10],rax
    39bb:	c3                   	ret    
    39bc:	0f 1f 40 00          	nop    DWORD PTR [rax+0x0]

00000000000039c0 <_ZN8Bitboard9movePieceEjjhh>:
    39c0:	f3 0f 1e fa          	endbr64 
    39c4:	89 d2                	mov    edx,edx
    39c6:	89 f6                	mov    esi,esi
    39c8:	4c 8d 0c d7          	lea    r9,[rdi+rdx*8]
    39cc:	ba 01 00 00 00       	mov    edx,0x1
    39d1:	48 8d 34 f7          	lea    rsi,[rdi+rsi*8]
    39d5:	48 89 d0             	mov    rax,rdx
    39d8:	48 8b 7e 10          	mov    rdi,QWORD PTR [rsi+0x10]
    39dc:	48 d3 e0             	shl    rax,cl
    39df:	44 89 c1             	mov    ecx,r8d
    39e2:	48 f7 d0             	not    rax
    39e5:	48 d3 e2             	shl    rdx,cl
    39e8:	48 21 c7             	and    rdi,rax
    39eb:	49 23 01             	and    rax,QWORD PTR [r9]
    39ee:	48 09 d0             	or     rax,rdx
    39f1:	48 09 fa             	or     rdx,rdi
    39f4:	49 89 01             	mov    QWORD PTR [r9],rax
    39f7:	48 89 56 10          	mov    QWORD PTR [rsi+0x10],rdx
    39fb:	c3                   	ret    
    39fc:	0f 1f 40 00          	nop    DWORD PTR [rax+0x0]

0000000000003a00 <_ZN8Bitboard14chessBoard2strB5cxx11Ev>:
    3a00:	f3 0f 1e fa          	endbr64 
    3a04:	41 57                	push   r15
    3a06:	48 8d 47 10          	lea    rax,[rdi+0x10]
    3a0a:	41 bf 38 00 00 00    	mov    r15d,0x38
    3a10:	41 56                	push   r14
    3a12:	41 55                	push   r13
    3a14:	49 bd ff ff ff ff ff 	movabs r13,0x3fffffffffffffff
    3a1b:	ff ff 3f 
    3a1e:	41 54                	push   r12
    3a20:	49 89 fc             	mov    r12,rdi
    3a23:	55                   	push   rbp
    3a24:	48 89 f5             	mov    rbp,rsi
    3a27:	53                   	push   rbx
    3a28:	48 83 ec 18          	sub    rsp,0x18
    3a2c:	48 c7 47 08 00 00 00 	mov    QWORD PTR [rdi+0x8],0x0
    3a33:	00 
    3a34:	c6 47 10 00          	mov    BYTE PTR [rdi+0x10],0x0
    3a38:	48 89 44 24 08       	mov    QWORD PTR [rsp+0x8],rax
    3a3d:	48 89 07             	mov    QWORD PTR [rdi],rax
    3a40:	31 c0                	xor    eax,eax
    3a42:	66 0f 1f 44 00 00    	nop    WORD PTR [rax+rax*1+0x0]
    3a48:	41 0f b6 df          	movzx  ebx,r15b
    3a4c:	44 8d 73 08          	lea    r14d,[rbx+0x8]
    3a50:	eb 4b                	jmp    3a9d <_ZN8Bitboard14chessBoard2strB5cxx11Ev+0x9d>
    3a52:	66 0f 1f 44 00 00    	nop    WORD PTR [rax+rax*1+0x0]
    3a58:	48 8b 55 00          	mov    rdx,QWORD PTR [rbp+0x0]
    3a5c:	89 d9                	mov    ecx,ebx
    3a5e:	48 8d 35 f4 25 00 00 	lea    rsi,[rip+0x25f4]        # 6059 <_IO_stdin_used+0x59>
    3a65:	48 d3 ea             	shr    rdx,cl
    3a68:	83 e2 01             	and    edx,0x1
    3a6b:	48 8d 15 e9 25 00 00 	lea    rdx,[rip+0x25e9]        # 605b <_IO_stdin_used+0x5b>
    3a72:	48 0f 44 f2          	cmove  rsi,rdx
    3a76:	4c 39 e8             	cmp    rax,r13
    3a79:	0f 84 c9 01 00 00    	je     3c48 <_ZN8Bitboard14chessBoard2strB5cxx11Ev+0x248>
    3a7f:	ba 01 00 00 00       	mov    edx,0x1
    3a84:	4c 89 e7             	mov    rdi,r12
    3a87:	e8 a4 e8 ff ff       	call   2330 <_ZNSt7__cxx1112basic_stringIcSt11char_traitsIcESaIcEE9_M_appendEPKcm@plt>
    3a8c:	83 c3 01             	add    ebx,0x1
    3a8f:	49 8b 44 24 08       	mov    rax,QWORD PTR [r12+0x8]
    3a94:	41 39 de             	cmp    r14d,ebx
    3a97:	0f 84 83 00 00 00    	je     3b20 <_ZN8Bitboard14chessBoard2strB5cxx11Ev+0x120>
    3a9d:	48 8b 55 10          	mov    rdx,QWORD PTR [rbp+0x10]
    3aa1:	48 0f a3 da          	bt     rdx,rbx
    3aa5:	72 b1                	jb     3a58 <_ZN8Bitboard14chessBoard2strB5cxx11Ev+0x58>
    3aa7:	48 8b 55 18          	mov    rdx,QWORD PTR [rbp+0x18]
    3aab:	48 0f a3 da          	bt     rdx,rbx
    3aaf:	73 2f                	jae    3ae0 <_ZN8Bitboard14chessBoard2strB5cxx11Ev+0xe0>
    3ab1:	48 8b 55 00          	mov    rdx,QWORD PTR [rbp+0x0]
    3ab5:	89 d9                	mov    ecx,ebx
    3ab7:	48 8d 35 9f 25 00 00 	lea    rsi,[rip+0x259f]        # 605d <_IO_stdin_used+0x5d>
    3abe:	48 d3 ea             	shr    rdx,cl
    3ac1:	83 e2 01             	and    edx,0x1
    3ac4:	48 8d 15 1e 26 00 00 	lea    rdx,[rip+0x261e]        # 60e9 <_IO_stdin_used+0xe9>
    3acb:	48 0f 44 f2          	cmove  rsi,rdx
    3acf:	4c 39 e8             	cmp    rax,r13
    3ad2:	75 ab                	jne    3a7f <_ZN8Bitboard14chessBoard2strB5cxx11Ev+0x7f>
    3ad4:	48 8d 3d 65 25 00 00 	lea    rdi,[rip+0x2565]        # 6040 <_IO_stdin_used+0x40>
    3adb:	e8 a0 e8 ff ff       	call   2380 <_ZSt20__throw_length_errorPKc@plt>
    3ae0:	48 8b 55 20          	mov    rdx,QWORD PTR [rbp+0x20]
    3ae4:	48 0f a3 da          	bt     rdx,rbx
    3ae8:	73 6e                	jae    3b58 <_ZN8Bitboard14chessBoard2strB5cxx11Ev+0x158>
    3aea:	48 8b 55 00          	mov    rdx,QWORD PTR [rbp+0x0]
    3aee:	89 d9                	mov    ecx,ebx
    3af0:	48 8d 35 68 25 00 00 	lea    rsi,[rip+0x2568]        # 605f <_IO_stdin_used+0x5f>
    3af7:	48 d3 ea             	shr    rdx,cl
    3afa:	83 e2 01             	and    edx,0x1
    3afd:	48 8d 15 5d 25 00 00 	lea    rdx,[rip+0x255d]        # 6061 <_IO_stdin_used+0x61>
    3b04:	48 0f 44 f2          	cmove  rsi,rdx
    3b08:	4c 39 e8             	cmp    rax,r13
    3b0b:	0f 85 6e ff ff ff    	jne    3a7f <_ZN8Bitboard14chessBoard2strB5cxx11Ev+0x7f>
    3b11:	48 8d 3d 28 25 00 00 	lea    rdi,[rip+0x2528]        # 6040 <_IO_stdin_used+0x40>
    3b18:	e8 63 e8 ff ff       	call   2380 <_ZSt20__throw_length_errorPKc@plt>
    3b1d:	0f 1f 00             	nop    DWORD PTR [rax]
    3b20:	4c 39 e8             	cmp    rax,r13
    3b23:	0f 84 37 01 00 00    	je     3c60 <_ZN8Bitboard14chessBoard2strB5cxx11Ev+0x260>
    3b29:	ba 01 00 00 00       	mov    edx,0x1
    3b2e:	48 8d 35 d8 25 00 00 	lea    rsi,[rip+0x25d8]        # 610d <_IO_stdin_used+0x10d>
    3b35:	4c 89 e7             	mov    rdi,r12
    3b38:	e8 f3 e7 ff ff       	call   2330 <_ZNSt7__cxx1112basic_stringIcSt11char_traitsIcESaIcEE9_M_appendEPKcm@plt>
    3b3d:	41 83 ef 08          	sub    r15d,0x8
    3b41:	41 80 ff f8          	cmp    r15b,0xf8
    3b45:	0f 84 cd 00 00 00    	je     3c18 <_ZN8Bitboard14chessBoard2strB5cxx11Ev+0x218>
    3b4b:	49 8b 44 24 08       	mov    rax,QWORD PTR [r12+0x8]
    3b50:	e9 f3 fe ff ff       	jmp    3a48 <_ZN8Bitboard14chessBoard2strB5cxx11Ev+0x48>
    3b55:	0f 1f 00             	nop    DWORD PTR [rax]
    3b58:	48 8b 55 28          	mov    rdx,QWORD PTR [rbp+0x28]
    3b5c:	48 0f a3 da          	bt     rdx,rbx
    3b60:	73 36                	jae    3b98 <_ZN8Bitboard14chessBoard2strB5cxx11Ev+0x198>
    3b62:	48 8b 55 00          	mov    rdx,QWORD PTR [rbp+0x0]
    3b66:	89 d9                	mov    ecx,ebx
    3b68:	48 8d 35 f4 24 00 00 	lea    rsi,[rip+0x24f4]        # 6063 <_IO_stdin_used+0x63>
    3b6f:	48 d3 ea             	shr    rdx,cl
    3b72:	83 e2 01             	and    edx,0x1
    3b75:	48 8d 15 e9 24 00 00 	lea    rdx,[rip+0x24e9]        # 6065 <_IO_stdin_used+0x65>
    3b7c:	48 0f 44 f2          	cmove  rsi,rdx
    3b80:	4c 39 e8             	cmp    rax,r13
    3b83:	0f 85 f6 fe ff ff    	jne    3a7f <_ZN8Bitboard14chessBoard2strB5cxx11Ev+0x7f>
    3b89:	48 8d 3d b0 24 00 00 	lea    rdi,[rip+0x24b0]        # 6040 <_IO_stdin_used+0x40>
    3b90:	e8 eb e7 ff ff       	call   2380 <_ZSt20__throw_length_errorPKc@plt>
    3b95:	0f 1f 00             	nop    DWORD PTR [rax]
    3b98:	48 8b 55 30          	mov    rdx,QWORD PTR [rbp+0x30]
    3b9c:	48 0f a3 da          	bt     rdx,rbx
    3ba0:	73 36                	jae    3bd8 <_ZN8Bitboard14chessBoard2strB5cxx11Ev+0x1d8>
    3ba2:	48 8b 55 00          	mov    rdx,QWORD PTR [rbp+0x0]
    3ba6:	89 d9                	mov    ecx,ebx
    3ba8:	48 8d 35 ba 24 00 00 	lea    rsi,[rip+0x24ba]        # 6069 <_IO_stdin_used+0x69>
    3baf:	48 8d 3d b1 24 00 00 	lea    rdi,[rip+0x24b1]        # 6067 <_IO_stdin_used+0x67>
    3bb6:	48 d3 ea             	shr    rdx,cl
    3bb9:	83 e2 01             	and    edx,0x1
    3bbc:	48 0f 45 f7          	cmovne rsi,rdi
    3bc0:	4c 39 e8             	cmp    rax,r13
    3bc3:	0f 85 b6 fe ff ff    	jne    3a7f <_ZN8Bitboard14chessBoard2strB5cxx11Ev+0x7f>
    3bc9:	48 8d 3d 70 24 00 00 	lea    rdi,[rip+0x2470]        # 6040 <_IO_stdin_used+0x40>
    3bd0:	e8 ab e7 ff ff       	call   2380 <_ZSt20__throw_length_errorPKc@plt>
    3bd5:	0f 1f 00             	nop    DWORD PTR [rax]
    3bd8:	48 8b 55 38          	mov    rdx,QWORD PTR [rbp+0x38]
    3bdc:	48 0f a3 da          	bt     rdx,rbx
    3be0:	73 48                	jae    3c2a <_ZN8Bitboard14chessBoard2strB5cxx11Ev+0x22a>
    3be2:	48 8b 55 00          	mov    rdx,QWORD PTR [rbp+0x0]
    3be6:	89 d9                	mov    ecx,ebx
    3be8:	48 8d 35 7e 24 00 00 	lea    rsi,[rip+0x247e]        # 606d <_IO_stdin_used+0x6d>
    3bef:	48 8d 3d 75 24 00 00 	lea    rdi,[rip+0x2475]        # 606b <_IO_stdin_used+0x6b>
    3bf6:	48 d3 ea             	shr    rdx,cl
    3bf9:	83 e2 01             	and    edx,0x1
    3bfc:	48 0f 45 f7          	cmovne rsi,rdi
    3c00:	4c 39 e8             	cmp    rax,r13
    3c03:	0f 85 76 fe ff ff    	jne    3a7f <_ZN8Bitboard14chessBoard2strB5cxx11Ev+0x7f>
    3c09:	48 8d 3d 30 24 00 00 	lea    rdi,[rip+0x2430]        # 6040 <_IO_stdin_used+0x40>
    3c10:	e8 6b e7 ff ff       	call   2380 <_ZSt20__throw_length_errorPKc@plt>
    3c15:	0f 1f 00             	nop    DWORD PTR [rax]
    3c18:	48 83 c4 18          	add    rsp,0x18
    3c1c:	4c 89 e0             	mov    rax,r12
    3c1f:	5b                   	pop    rbx
    3c20:	5d                   	pop    rbp
    3c21:	41 5c                	pop    r12
    3c23:	41 5d                	pop    r13
    3c25:	41 5e                	pop    r14
    3c27:	41 5f                	pop    r15
    3c29:	c3                   	ret    
    3c2a:	4c 39 e8             	cmp    rax,r13
    3c2d:	74 25                	je     3c54 <_ZN8Bitboard14chessBoard2strB5cxx11Ev+0x254>
    3c2f:	ba 01 00 00 00       	mov    edx,0x1
    3c34:	48 8d 35 1c 24 00 00 	lea    rsi,[rip+0x241c]        # 6057 <_IO_stdin_used+0x57>
    3c3b:	4c 89 e7             	mov    rdi,r12
    3c3e:	e8 ed e6 ff ff       	call   2330 <_ZNSt7__cxx1112basic_stringIcSt11char_traitsIcESaIcEE9_M_appendEPKcm@plt>
    3c43:	e9 44 fe ff ff       	jmp    3a8c <_ZN8Bitboard14chessBoard2strB5cxx11Ev+0x8c>
    3c48:	48 8d 3d f1 23 00 00 	lea    rdi,[rip+0x23f1]        # 6040 <_IO_stdin_used+0x40>
    3c4f:	e8 2c e7 ff ff       	call   2380 <_ZSt20__throw_length_errorPKc@plt>
    3c54:	48 8d 3d e5 23 00 00 	lea    rdi,[rip+0x23e5]        # 6040 <_IO_stdin_used+0x40>
    3c5b:	e8 20 e7 ff ff       	call   2380 <_ZSt20__throw_length_errorPKc@plt>
    3c60:	48 8d 3d d9 23 00 00 	lea    rdi,[rip+0x23d9]        # 6040 <_IO_stdin_used+0x40>
    3c67:	e8 14 e7 ff ff       	call   2380 <_ZSt20__throw_length_errorPKc@plt>
    3c6c:	f3 0f 1e fa          	endbr64 
    3c70:	48 89 c5             	mov    rbp,rax
    3c73:	e9 7c e9 ff ff       	jmp    25f4 <_ZN8Bitboard14chessBoard2strB5cxx11Ev.cold>
    3c78:	0f 1f 84 00 00 00 00 	nop    DWORD PTR [rax+rax*1+0x0]
    3c7f:	00 

0000000000003c80 <_ZN8BitboardeqERS_>:
    3c80:	f3 0f 1e fa          	endbr64 
    3c84:	41 57                	push   r15
    3c86:	b8 01 00 00 00       	mov    eax,0x1
    3c8b:	41 56                	push   r14
    3c8d:	41 55                	push   r13
    3c8f:	49 89 fd             	mov    r13,rdi
    3c92:	41 54                	push   r12
    3c94:	49 89 f4             	mov    r12,rsi
    3c97:	55                   	push   rbp
    3c98:	53                   	push   rbx
    3c99:	48 83 ec 08          	sub    rsp,0x8
    3c9d:	48 8b 4e 40          	mov    rcx,QWORD PTR [rsi+0x40]
    3ca1:	48 39 4f 40          	cmp    QWORD PTR [rdi+0x40],rcx
    3ca5:	0f 85 f5 01 00 00    	jne    3ea0 <_ZN8BitboardeqERS_+0x220>
    3cab:	49 8b 0c 24          	mov    rcx,QWORD PTR [r12]
    3caf:	49 39 4d 00          	cmp    QWORD PTR [r13+0x0],rcx
    3cb3:	0f 85 7f 01 00 00    	jne    3e38 <_ZN8BitboardeqERS_+0x1b8>
    3cb9:	49 8b 54 24 08       	mov    rdx,QWORD PTR [r12+0x8]
    3cbe:	49 39 55 08          	cmp    QWORD PTR [r13+0x8],rdx
    3cc2:	0f 85 08 01 00 00    	jne    3dd0 <_ZN8BitboardeqERS_+0x150>
    3cc8:	31 db                	xor    ebx,ebx
    3cca:	4c 8d 3d 8f 1c 00 00 	lea    r15,[rip+0x1c8f]        # 5960 <_ZNKSt5ctypeIcE8do_widenEc>
    3cd1:	eb 2a                	jmp    3cfd <_ZN8BitboardeqERS_+0x7d>
    3cd3:	0f 1f 44 00 00       	nop    DWORD PTR [rax+rax*1+0x0]
    3cd8:	41 0f be 76 43       	movsx  esi,BYTE PTR [r14+0x43]
    3cdd:	48 89 ef             	mov    rdi,rbp
    3ce0:	e8 fb e5 ff ff       	call   22e0 <_ZNSo3putEc@plt>
    3ce5:	48 89 c7             	mov    rdi,rax
    3ce8:	e8 b3 e6 ff ff       	call   23a0 <_ZNSo5flushEv@plt>
    3ced:	31 c0                	xor    eax,eax
    3cef:	48 83 c3 01          	add    rbx,0x1
    3cf3:	48 83 fb 06          	cmp    rbx,0x6
    3cf7:	0f 84 9b 00 00 00    	je     3d98 <_ZN8BitboardeqERS_+0x118>
    3cfd:	49 8b 4c dc 10       	mov    rcx,QWORD PTR [r12+rbx*8+0x10]
    3d02:	49 39 4c dd 10       	cmp    QWORD PTR [r13+rbx*8+0x10],rcx
    3d07:	74 e6                	je     3cef <_ZN8BitboardeqERS_+0x6f>
    3d09:	ba 07 00 00 00       	mov    edx,0x7
    3d0e:	48 8d 35 97 23 00 00 	lea    rsi,[rip+0x2397]        # 60ac <_IO_stdin_used+0xac>
    3d15:	48 8d 3d 24 53 00 00 	lea    rdi,[rip+0x5324]        # 9040 <_ZSt4cout@@GLIBCXX_3.4>
    3d1c:	e8 1f e7 ff ff       	call   2440 <_ZSt16__ostream_insertIcSt11char_traitsIcEERSt13basic_ostreamIT_T0_ES6_PKS3_l@plt>
    3d21:	89 de                	mov    esi,ebx
    3d23:	48 8d 3d 16 53 00 00 	lea    rdi,[rip+0x5316]        # 9040 <_ZSt4cout@@GLIBCXX_3.4>
    3d2a:	e8 f1 e7 ff ff       	call   2520 <_ZNSolsEi@plt>
    3d2f:	ba 07 00 00 00       	mov    edx,0x7
    3d34:	48 8d 35 79 23 00 00 	lea    rsi,[rip+0x2379]        # 60b4 <_IO_stdin_used+0xb4>
    3d3b:	48 89 c5             	mov    rbp,rax
    3d3e:	48 89 c7             	mov    rdi,rax
    3d41:	e8 fa e6 ff ff       	call   2440 <_ZSt16__ostream_insertIcSt11char_traitsIcEERSt13basic_ostreamIT_T0_ES6_PKS3_l@plt>
    3d46:	48 8b 45 00          	mov    rax,QWORD PTR [rbp+0x0]
    3d4a:	48 8b 40 e8          	mov    rax,QWORD PTR [rax-0x18]
    3d4e:	4c 8b b4 05 f0 00 00 	mov    r14,QWORD PTR [rbp+rax*1+0xf0]
    3d55:	00 
    3d56:	4d 85 f6             	test   r14,r14
    3d59:	0f 84 9b 03 00 00    	je     40fa <_ZN8BitboardeqERS_+0x47a>
    3d5f:	41 80 7e 38 00       	cmp    BYTE PTR [r14+0x38],0x0
    3d64:	0f 85 6e ff ff ff    	jne    3cd8 <_ZN8BitboardeqERS_+0x58>
    3d6a:	4c 89 f7             	mov    rdi,r14
    3d6d:	e8 de e6 ff ff       	call   2450 <_ZNKSt5ctypeIcE13_M_widen_initEv@plt>
    3d72:	49 8b 06             	mov    rax,QWORD PTR [r14]
    3d75:	be 0a 00 00 00       	mov    esi,0xa
    3d7a:	48 8b 40 30          	mov    rax,QWORD PTR [rax+0x30]
    3d7e:	4c 39 f8             	cmp    rax,r15
    3d81:	0f 84 56 ff ff ff    	je     3cdd <_ZN8BitboardeqERS_+0x5d>
    3d87:	4c 89 f7             	mov    rdi,r14
    3d8a:	ff d0                	call   rax
    3d8c:	0f be f0             	movsx  esi,al
    3d8f:	e9 49 ff ff ff       	jmp    3cdd <_ZN8BitboardeqERS_+0x5d>
    3d94:	0f 1f 40 00          	nop    DWORD PTR [rax+0x0]
    3d98:	41 0f b6 4c 24 48    	movzx  ecx,BYTE PTR [r12+0x48]
    3d9e:	41 38 4d 48          	cmp    BYTE PTR [r13+0x48],cl
    3da2:	0f 85 d8 01 00 00    	jne    3f80 <_ZN8BitboardeqERS_+0x300>
    3da8:	41 0f b6 54 24 49    	movzx  edx,BYTE PTR [r12+0x49]
    3dae:	41 38 55 49          	cmp    BYTE PTR [r13+0x49],dl
    3db2:	0f 85 50 01 00 00    	jne    3f08 <_ZN8BitboardeqERS_+0x288>
    3db8:	48 83 c4 08          	add    rsp,0x8
    3dbc:	5b                   	pop    rbx
    3dbd:	5d                   	pop    rbp
    3dbe:	41 5c                	pop    r12
    3dc0:	41 5d                	pop    r13
    3dc2:	41 5e                	pop    r14
    3dc4:	41 5f                	pop    r15
    3dc6:	c3                   	ret    
    3dc7:	66 0f 1f 84 00 00 00 	nop    WORD PTR [rax+rax*1+0x0]
    3dce:	00 00 
    3dd0:	ba 15 00 00 00       	mov    edx,0x15
    3dd5:	48 8d 35 ba 22 00 00 	lea    rsi,[rip+0x22ba]        # 6096 <_IO_stdin_used+0x96>
    3ddc:	48 8d 3d 5d 52 00 00 	lea    rdi,[rip+0x525d]        # 9040 <_ZSt4cout@@GLIBCXX_3.4>
    3de3:	e8 58 e6 ff ff       	call   2440 <_ZSt16__ostream_insertIcSt11char_traitsIcEERSt13basic_ostreamIT_T0_ES6_PKS3_l@plt>
    3de8:	48 8b 05 51 52 00 00 	mov    rax,QWORD PTR [rip+0x5251]        # 9040 <_ZSt4cout@@GLIBCXX_3.4>
    3def:	48 8d 15 4a 52 00 00 	lea    rdx,[rip+0x524a]        # 9040 <_ZSt4cout@@GLIBCXX_3.4>
    3df6:	48 8b 40 e8          	mov    rax,QWORD PTR [rax-0x18]
    3dfa:	48 8b ac 02 f0 00 00 	mov    rbp,QWORD PTR [rdx+rax*1+0xf0]
    3e01:	00 
    3e02:	48 85 ed             	test   rbp,rbp
    3e05:	0f 84 ef 02 00 00    	je     40fa <_ZN8BitboardeqERS_+0x47a>
    3e0b:	80 7d 38 00          	cmp    BYTE PTR [rbp+0x38],0x0
    3e0f:	0f 84 d3 01 00 00    	je     3fe8 <_ZN8BitboardeqERS_+0x368>
    3e15:	0f be 75 43          	movsx  esi,BYTE PTR [rbp+0x43]
    3e19:	48 8d 3d 20 52 00 00 	lea    rdi,[rip+0x5220]        # 9040 <_ZSt4cout@@GLIBCXX_3.4>
    3e20:	e8 bb e4 ff ff       	call   22e0 <_ZNSo3putEc@plt>
    3e25:	48 89 c7             	mov    rdi,rax
    3e28:	e8 73 e5 ff ff       	call   23a0 <_ZNSo5flushEv@plt>
    3e2d:	31 c0                	xor    eax,eax
    3e2f:	e9 94 fe ff ff       	jmp    3cc8 <_ZN8BitboardeqERS_+0x48>
    3e34:	0f 1f 40 00          	nop    DWORD PTR [rax+0x0]
    3e38:	ba 15 00 00 00       	mov    edx,0x15
    3e3d:	48 8d 35 3c 22 00 00 	lea    rsi,[rip+0x223c]        # 6080 <_IO_stdin_used+0x80>
    3e44:	48 8d 3d f5 51 00 00 	lea    rdi,[rip+0x51f5]        # 9040 <_ZSt4cout@@GLIBCXX_3.4>
    3e4b:	e8 f0 e5 ff ff       	call   2440 <_ZSt16__ostream_insertIcSt11char_traitsIcEERSt13basic_ostreamIT_T0_ES6_PKS3_l@plt>
    3e50:	48 8b 05 e9 51 00 00 	mov    rax,QWORD PTR [rip+0x51e9]        # 9040 <_ZSt4cout@@GLIBCXX_3.4>
    3e57:	48 8d 15 e2 51 00 00 	lea    rdx,[rip+0x51e2]        # 9040 <_ZSt4cout@@GLIBCXX_3.4>
    3e5e:	48 8b 40 e8          	mov    rax,QWORD PTR [rax-0x18]
    3e62:	48 8b ac 02 f0 00 00 	mov    rbp,QWORD PTR [rdx+rax*1+0xf0]
    3e69:	00 
    3e6a:	48 85 ed             	test   rbp,rbp
    3e6d:	0f 84 87 02 00 00    	je     40fa <_ZN8BitboardeqERS_+0x47a>
    3e73:	80 7d 38 00          	cmp    BYTE PTR [rbp+0x38],0x0
    3e77:	0f 84 13 02 00 00    	je     4090 <_ZN8BitboardeqERS_+0x410>
    3e7d:	0f be 75 43          	movsx  esi,BYTE PTR [rbp+0x43]
    3e81:	48 8d 3d b8 51 00 00 	lea    rdi,[rip+0x51b8]        # 9040 <_ZSt4cout@@GLIBCXX_3.4>
    3e88:	e8 53 e4 ff ff       	call   22e0 <_ZNSo3putEc@plt>
    3e8d:	48 89 c7             	mov    rdi,rax
    3e90:	e8 0b e5 ff ff       	call   23a0 <_ZNSo5flushEv@plt>
    3e95:	31 c0                	xor    eax,eax
    3e97:	e9 1d fe ff ff       	jmp    3cb9 <_ZN8BitboardeqERS_+0x39>
    3e9c:	0f 1f 40 00          	nop    DWORD PTR [rax+0x0]
    3ea0:	ba 10 00 00 00       	mov    edx,0x10
    3ea5:	48 8d 35 c3 21 00 00 	lea    rsi,[rip+0x21c3]        # 606f <_IO_stdin_used+0x6f>
    3eac:	48 8d 3d 8d 51 00 00 	lea    rdi,[rip+0x518d]        # 9040 <_ZSt4cout@@GLIBCXX_3.4>
    3eb3:	e8 88 e5 ff ff       	call   2440 <_ZSt16__ostream_insertIcSt11char_traitsIcEERSt13basic_ostreamIT_T0_ES6_PKS3_l@plt>
    3eb8:	48 8b 05 81 51 00 00 	mov    rax,QWORD PTR [rip+0x5181]        # 9040 <_ZSt4cout@@GLIBCXX_3.4>
    3ebf:	48 8d 15 7a 51 00 00 	lea    rdx,[rip+0x517a]        # 9040 <_ZSt4cout@@GLIBCXX_3.4>
    3ec6:	48 8b 40 e8          	mov    rax,QWORD PTR [rax-0x18]
    3eca:	48 8b ac 02 f0 00 00 	mov    rbp,QWORD PTR [rdx+rax*1+0xf0]
    3ed1:	00 
    3ed2:	48 85 ed             	test   rbp,rbp
    3ed5:	0f 84 1f 02 00 00    	je     40fa <_ZN8BitboardeqERS_+0x47a>
    3edb:	80 7d 38 00          	cmp    BYTE PTR [rbp+0x38],0x0
    3edf:	0f 84 3b 01 00 00    	je     4020 <_ZN8BitboardeqERS_+0x3a0>
    3ee5:	0f be 75 43          	movsx  esi,BYTE PTR [rbp+0x43]
    3ee9:	48 8d 3d 50 51 00 00 	lea    rdi,[rip+0x5150]        # 9040 <_ZSt4cout@@GLIBCXX_3.4>
    3ef0:	e8 eb e3 ff ff       	call   22e0 <_ZNSo3putEc@plt>
    3ef5:	48 89 c7             	mov    rdi,rax
    3ef8:	e8 a3 e4 ff ff       	call   23a0 <_ZNSo5flushEv@plt>
    3efd:	31 c0                	xor    eax,eax
    3eff:	e9 a7 fd ff ff       	jmp    3cab <_ZN8BitboardeqERS_+0x2b>
    3f04:	0f 1f 40 00          	nop    DWORD PTR [rax+0x0]
    3f08:	ba 12 00 00 00       	mov    edx,0x12
    3f0d:	48 8d 35 bb 21 00 00 	lea    rsi,[rip+0x21bb]        # 60cf <_IO_stdin_used+0xcf>
    3f14:	48 8d 3d 25 51 00 00 	lea    rdi,[rip+0x5125]        # 9040 <_ZSt4cout@@GLIBCXX_3.4>
    3f1b:	e8 20 e5 ff ff       	call   2440 <_ZSt16__ostream_insertIcSt11char_traitsIcEERSt13basic_ostreamIT_T0_ES6_PKS3_l@plt>
    3f20:	48 8b 05 19 51 00 00 	mov    rax,QWORD PTR [rip+0x5119]        # 9040 <_ZSt4cout@@GLIBCXX_3.4>
    3f27:	48 8d 15 12 51 00 00 	lea    rdx,[rip+0x5112]        # 9040 <_ZSt4cout@@GLIBCXX_3.4>
    3f2e:	48 8b 40 e8          	mov    rax,QWORD PTR [rax-0x18]
    3f32:	48 8b ac 02 f0 00 00 	mov    rbp,QWORD PTR [rdx+rax*1+0xf0]
    3f39:	00 
    3f3a:	48 85 ed             	test   rbp,rbp
    3f3d:	0f 84 b7 01 00 00    	je     40fa <_ZN8BitboardeqERS_+0x47a>
    3f43:	80 7d 38 00          	cmp    BYTE PTR [rbp+0x38],0x0
    3f47:	0f 84 0b 01 00 00    	je     4058 <_ZN8BitboardeqERS_+0x3d8>
    3f4d:	0f be 75 43          	movsx  esi,BYTE PTR [rbp+0x43]
    3f51:	48 8d 3d e8 50 00 00 	lea    rdi,[rip+0x50e8]        # 9040 <_ZSt4cout@@GLIBCXX_3.4>
    3f58:	e8 83 e3 ff ff       	call   22e0 <_ZNSo3putEc@plt>
    3f5d:	48 89 c7             	mov    rdi,rax
    3f60:	e8 3b e4 ff ff       	call   23a0 <_ZNSo5flushEv@plt>
    3f65:	48 83 c4 08          	add    rsp,0x8
    3f69:	31 c0                	xor    eax,eax
    3f6b:	5b                   	pop    rbx
    3f6c:	5d                   	pop    rbp
    3f6d:	41 5c                	pop    r12
    3f6f:	41 5d                	pop    r13
    3f71:	41 5e                	pop    r14
    3f73:	41 5f                	pop    r15
    3f75:	c3                   	ret    
    3f76:	66 2e 0f 1f 84 00 00 	nop    WORD PTR cs:[rax+rax*1+0x0]
    3f7d:	00 00 00 
    3f80:	ba 12 00 00 00       	mov    edx,0x12
    3f85:	48 8d 35 30 21 00 00 	lea    rsi,[rip+0x2130]        # 60bc <_IO_stdin_used+0xbc>
    3f8c:	48 8d 3d ad 50 00 00 	lea    rdi,[rip+0x50ad]        # 9040 <_ZSt4cout@@GLIBCXX_3.4>
    3f93:	e8 a8 e4 ff ff       	call   2440 <_ZSt16__ostream_insertIcSt11char_traitsIcEERSt13basic_ostreamIT_T0_ES6_PKS3_l@plt>
    3f98:	48 8b 05 a1 50 00 00 	mov    rax,QWORD PTR [rip+0x50a1]        # 9040 <_ZSt4cout@@GLIBCXX_3.4>
    3f9f:	48 8d 15 9a 50 00 00 	lea    rdx,[rip+0x509a]        # 9040 <_ZSt4cout@@GLIBCXX_3.4>
    3fa6:	48 8b 40 e8          	mov    rax,QWORD PTR [rax-0x18]
    3faa:	48 8b ac 02 f0 00 00 	mov    rbp,QWORD PTR [rdx+rax*1+0xf0]
    3fb1:	00 
    3fb2:	48 85 ed             	test   rbp,rbp
    3fb5:	0f 84 3f 01 00 00    	je     40fa <_ZN8BitboardeqERS_+0x47a>
    3fbb:	80 7d 38 00          	cmp    BYTE PTR [rbp+0x38],0x0
    3fbf:	0f 84 03 01 00 00    	je     40c8 <_ZN8BitboardeqERS_+0x448>
    3fc5:	0f be 75 43          	movsx  esi,BYTE PTR [rbp+0x43]
    3fc9:	48 8d 3d 70 50 00 00 	lea    rdi,[rip+0x5070]        # 9040 <_ZSt4cout@@GLIBCXX_3.4>
    3fd0:	e8 0b e3 ff ff       	call   22e0 <_ZNSo3putEc@plt>
    3fd5:	48 89 c7             	mov    rdi,rax
    3fd8:	e8 c3 e3 ff ff       	call   23a0 <_ZNSo5flushEv@plt>
    3fdd:	31 c0                	xor    eax,eax
    3fdf:	e9 c4 fd ff ff       	jmp    3da8 <_ZN8BitboardeqERS_+0x128>
    3fe4:	0f 1f 40 00          	nop    DWORD PTR [rax+0x0]
    3fe8:	48 89 ef             	mov    rdi,rbp
    3feb:	e8 60 e4 ff ff       	call   2450 <_ZNKSt5ctypeIcE13_M_widen_initEv@plt>
    3ff0:	48 8b 45 00          	mov    rax,QWORD PTR [rbp+0x0]
    3ff4:	be 0a 00 00 00       	mov    esi,0xa
    3ff9:	48 8d 15 60 19 00 00 	lea    rdx,[rip+0x1960]        # 5960 <_ZNKSt5ctypeIcE8do_widenEc>
    4000:	48 8b 40 30          	mov    rax,QWORD PTR [rax+0x30]
    4004:	48 39 d0             	cmp    rax,rdx
    4007:	0f 84 0c fe ff ff    	je     3e19 <_ZN8BitboardeqERS_+0x199>
    400d:	48 89 ef             	mov    rdi,rbp
    4010:	ff d0                	call   rax
    4012:	0f be f0             	movsx  esi,al
    4015:	e9 ff fd ff ff       	jmp    3e19 <_ZN8BitboardeqERS_+0x199>
    401a:	66 0f 1f 44 00 00    	nop    WORD PTR [rax+rax*1+0x0]
    4020:	48 89 ef             	mov    rdi,rbp
    4023:	e8 28 e4 ff ff       	call   2450 <_ZNKSt5ctypeIcE13_M_widen_initEv@plt>
    4028:	48 8b 45 00          	mov    rax,QWORD PTR [rbp+0x0]
    402c:	be 0a 00 00 00       	mov    esi,0xa
    4031:	48 8d 15 28 19 00 00 	lea    rdx,[rip+0x1928]        # 5960 <_ZNKSt5ctypeIcE8do_widenEc>
    4038:	48 8b 40 30          	mov    rax,QWORD PTR [rax+0x30]
    403c:	48 39 d0             	cmp    rax,rdx
    403f:	0f 84 a4 fe ff ff    	je     3ee9 <_ZN8BitboardeqERS_+0x269>
    4045:	48 89 ef             	mov    rdi,rbp
    4048:	ff d0                	call   rax
    404a:	0f be f0             	movsx  esi,al
    404d:	e9 97 fe ff ff       	jmp    3ee9 <_ZN8BitboardeqERS_+0x269>
    4052:	66 0f 1f 44 00 00    	nop    WORD PTR [rax+rax*1+0x0]
    4058:	48 89 ef             	mov    rdi,rbp
    405b:	e8 f0 e3 ff ff       	call   2450 <_ZNKSt5ctypeIcE13_M_widen_initEv@plt>
    4060:	48 8b 45 00          	mov    rax,QWORD PTR [rbp+0x0]
    4064:	be 0a 00 00 00       	mov    esi,0xa
    4069:	48 8d 15 f0 18 00 00 	lea    rdx,[rip+0x18f0]        # 5960 <_ZNKSt5ctypeIcE8do_widenEc>
    4070:	48 8b 40 30          	mov    rax,QWORD PTR [rax+0x30]
    4074:	48 39 d0             	cmp    rax,rdx
    4077:	0f 84 d4 fe ff ff    	je     3f51 <_ZN8BitboardeqERS_+0x2d1>
    407d:	48 89 ef             	mov    rdi,rbp
    4080:	ff d0                	call   rax
    4082:	0f be f0             	movsx  esi,al
    4085:	e9 c7 fe ff ff       	jmp    3f51 <_ZN8BitboardeqERS_+0x2d1>
    408a:	66 0f 1f 44 00 00    	nop    WORD PTR [rax+rax*1+0x0]
    4090:	48 89 ef             	mov    rdi,rbp
    4093:	e8 b8 e3 ff ff       	call   2450 <_ZNKSt5ctypeIcE13_M_widen_initEv@plt>
    4098:	48 8b 45 00          	mov    rax,QWORD PTR [rbp+0x0]
    409c:	be 0a 00 00 00       	mov    esi,0xa
    40a1:	48 8d 15 b8 18 00 00 	lea    rdx,[rip+0x18b8]        # 5960 <_ZNKSt5ctypeIcE8do_widenEc>
    40a8:	48 8b 40 30          	mov    rax,QWORD PTR [rax+0x30]
    40ac:	48 39 d0             	cmp    rax,rdx
    40af:	0f 84 cc fd ff ff    	je     3e81 <_ZN8BitboardeqERS_+0x201>
    40b5:	48 89 ef             	mov    rdi,rbp
    40b8:	ff d0                	call   rax
    40ba:	0f be f0             	movsx  esi,al
    40bd:	e9 bf fd ff ff       	jmp    3e81 <_ZN8BitboardeqERS_+0x201>
    40c2:	66 0f 1f 44 00 00    	nop    WORD PTR [rax+rax*1+0x0]
    40c8:	48 89 ef             	mov    rdi,rbp
    40cb:	e8 80 e3 ff ff       	call   2450 <_ZNKSt5ctypeIcE13_M_widen_initEv@plt>
    40d0:	48 8b 45 00          	mov    rax,QWORD PTR [rbp+0x0]
    40d4:	be 0a 00 00 00       	mov    esi,0xa
    40d9:	48 8d 15 80 18 00 00 	lea    rdx,[rip+0x1880]        # 5960 <_ZNKSt5ctypeIcE8do_widenEc>
    40e0:	48 8b 40 30          	mov    rax,QWORD PTR [rax+0x30]
    40e4:	48 39 d0             	cmp    rax,rdx
    40e7:	0f 84 dc fe ff ff    	je     3fc9 <_ZN8BitboardeqERS_+0x349>
    40ed:	48 89 ef             	mov    rdi,rbp
    40f0:	ff d0                	call   rax
    40f2:	0f be f0             	movsx  esi,al
    40f5:	e9 cf fe ff ff       	jmp    3fc9 <_ZN8BitboardeqERS_+0x349>
    40fa:	e8 71 e3 ff ff       	call   2470 <_ZSt16__throw_bad_castv@plt>
    40ff:	90                   	nop

0000000000004100 <_ZN8Bitboard13initConstantsEv>:
    4100:	f3 0f 1e fa          	endbr64 
    4104:	41 57                	push   r15
    4106:	31 c9                	xor    ecx,ecx
    4108:	41 bb 01 00 00 00    	mov    r11d,0x1
    410e:	49 ba fe fe fe fe fe 	movabs r10,0xfefefefefefefefe
    4115:	fe fe fe 
    4118:	49 b9 7f 7f 7f 7f 7f 	movabs r9,0x7f7f7f7f7f7f7f7f
    411f:	7f 7f 7f 
    4122:	41 56                	push   r14
    4124:	49 b8 3f 3f 3f 3f 3f 	movabs r8,0x3f3f3f3f3f3f3f3f
    412b:	3f 3f 3f 
    412e:	48 bf fc fc fc fc fc 	movabs rdi,0xfcfcfcfcfcfcfcfc
    4135:	fc fc fc 
    4138:	41 55                	push   r13
    413a:	41 54                	push   r12
    413c:	55                   	push   rbp
    413d:	48 8d 2d 3c 50 00 00 	lea    rbp,[rip+0x503c]        # 9180 <_ZN9constants11kingAttacksE>
    4144:	53                   	push   rbx
    4145:	48 8d 1d 34 62 00 00 	lea    rbx,[rip+0x6234]        # a380 <_ZN9constants13knightAttacksE>
    414c:	48 81 ec 18 02 00 00 	sub    rsp,0x218
    4153:	64 48 8b 04 25 28 00 	mov    rax,QWORD PTR fs:0x28
    415a:	00 00 
    415c:	48 89 84 24 08 02 00 	mov    QWORD PTR [rsp+0x208],rax
    4163:	00 
    4164:	31 c0                	xor    eax,eax
    4166:	66 2e 0f 1f 84 00 00 	nop    WORD PTR cs:[rax+rax*1+0x0]
    416d:	00 00 00 
    4170:	4c 89 da             	mov    rdx,r11
    4173:	48 d3 e2             	shl    rdx,cl
    4176:	48 8d 04 12          	lea    rax,[rdx+rdx*1]
    417a:	49 89 d4             	mov    r12,rdx
    417d:	4c 21 d0             	and    rax,r10
    4180:	48 89 c6             	mov    rsi,rax
    4183:	48 89 d0             	mov    rax,rdx
    4186:	48 d1 e8             	shr    rax,1
    4189:	4c 21 c8             	and    rax,r9
    418c:	48 09 f0             	or     rax,rsi
    418f:	49 09 c4             	or     r12,rax
    4192:	4c 89 e6             	mov    rsi,r12
    4195:	49 c1 ec 08          	shr    r12,0x8
    4199:	48 c1 e6 08          	shl    rsi,0x8
    419d:	4c 09 e6             	or     rsi,r12
    41a0:	48 09 c6             	or     rsi,rax
    41a3:	48 89 74 cd 00       	mov    QWORD PTR [rbp+rcx*8+0x0],rsi
    41a8:	48 89 d6             	mov    rsi,rdx
    41ab:	48 c1 e2 02          	shl    rdx,0x2
    41af:	48 c1 ee 02          	shr    rsi,0x2
    41b3:	48 21 fa             	and    rdx,rdi
    41b6:	4c 21 c6             	and    rsi,r8
    41b9:	48 09 f2             	or     rdx,rsi
    41bc:	48 89 c6             	mov    rsi,rax
    41bf:	48 c1 e8 10          	shr    rax,0x10
    41c3:	48 c1 e6 10          	shl    rsi,0x10
    41c7:	48 09 f0             	or     rax,rsi
    41ca:	48 89 d6             	mov    rsi,rdx
    41cd:	48 c1 ea 08          	shr    rdx,0x8
    41d1:	48 c1 e6 08          	shl    rsi,0x8
    41d5:	48 09 f0             	or     rax,rsi
    41d8:	48 09 c2             	or     rdx,rax
    41db:	48 89 14 cb          	mov    QWORD PTR [rbx+rcx*8],rdx
    41df:	48 83 c1 01          	add    rcx,0x1
    41e3:	48 83 f9 40          	cmp    rcx,0x40
    41e7:	75 87                	jne    4170 <_ZN8Bitboard13initConstantsEv+0x70>
    41e9:	4c 8d bc 24 00 01 00 	lea    r15,[rsp+0x100]
    41f0:	00 
    41f1:	48 89 e5             	mov    rbp,rsp
    41f4:	4c 89 ff             	mov    rdi,r15
    41f7:	e8 24 e1 ff ff       	call   2320 <_ZNSt8ios_baseC2Ev@plt>
    41fc:	4c 8b 2d bd 49 00 00 	mov    r13,QWORD PTR [rip+0x49bd]        # 8bc0 <_ZTTSt14basic_ifstreamIcSt11char_traitsIcEE@@GLIBCXX_3.4+0x8>
    4203:	48 8d 05 de 47 00 00 	lea    rax,[rip+0x47de]        # 89e8 <_ZTVSt9basic_iosIcSt11char_traitsIcEE@@GLIBCXX_3.4+0x10>
    420a:	31 f6                	xor    esi,esi
    420c:	48 89 84 24 00 01 00 	mov    QWORD PTR [rsp+0x100],rax
    4213:	00 
    4214:	31 c0                	xor    eax,eax
    4216:	48 8b 3d ab 49 00 00 	mov    rdi,QWORD PTR [rip+0x49ab]        # 8bc8 <_ZTTSt14basic_ifstreamIcSt11char_traitsIcEE@@GLIBCXX_3.4+0x10>
    421d:	66 89 84 24 e0 01 00 	mov    WORD PTR [rsp+0x1e0],ax
    4224:	00 
    4225:	49 8b 45 e8          	mov    rax,QWORD PTR [r13-0x18]
    4229:	48 c7 84 24 d8 01 00 	mov    QWORD PTR [rsp+0x1d8],0x0
    4230:	00 00 00 00 00 
    4235:	48 c7 84 24 e8 01 00 	mov    QWORD PTR [rsp+0x1e8],0x0
    423c:	00 00 00 00 00 
    4241:	48 c7 84 24 f0 01 00 	mov    QWORD PTR [rsp+0x1f0],0x0
    4248:	00 00 00 00 00 
    424d:	48 c7 84 24 f8 01 00 	mov    QWORD PTR [rsp+0x1f8],0x0
    4254:	00 00 00 00 00 
    4259:	48 c7 84 24 00 02 00 	mov    QWORD PTR [rsp+0x200],0x0
    4260:	00 00 00 00 00 
    4265:	4c 89 2c 24          	mov    QWORD PTR [rsp],r13
    4269:	48 89 3c 04          	mov    QWORD PTR [rsp+rax*1],rdi
    426d:	48 c7 44 24 08 00 00 	mov    QWORD PTR [rsp+0x8],0x0
    4274:	00 00 
    4276:	49 8b 7d e8          	mov    rdi,QWORD PTR [r13-0x18]
    427a:	48 01 ef             	add    rdi,rbp
    427d:	e8 1e e2 ff ff       	call   24a0 <_ZNSt9basic_iosIcSt11char_traitsIcEE4initEPSt15basic_streambufIcS1_E@plt>
    4282:	48 8d 05 77 48 00 00 	lea    rax,[rip+0x4877]        # 8b00 <_ZTVSt14basic_ifstreamIcSt11char_traitsIcEE@@GLIBCXX_3.4+0x18>
    4289:	4c 8d 74 24 10       	lea    r14,[rsp+0x10]
    428e:	48 89 04 24          	mov    QWORD PTR [rsp],rax
    4292:	4c 89 f7             	mov    rdi,r14
    4295:	48 83 c0 28          	add    rax,0x28
    4299:	48 89 84 24 00 01 00 	mov    QWORD PTR [rsp+0x100],rax
    42a0:	00 
    42a1:	e8 7a e1 ff ff       	call   2420 <_ZNSt13basic_filebufIcSt11char_traitsIcEEC1Ev@plt>
    42a6:	4c 89 f6             	mov    rsi,r14
    42a9:	4c 89 ff             	mov    rdi,r15
    42ac:	e8 ef e1 ff ff       	call   24a0 <_ZNSt9basic_iosIcSt11char_traitsIcEE4initEPSt15basic_streambufIcS1_E@plt>
    42b1:	ba 0c 00 00 00       	mov    edx,0xc
    42b6:	48 8d 35 25 1e 00 00 	lea    rsi,[rip+0x1e25]        # 60e2 <_IO_stdin_used+0xe2>
    42bd:	4c 89 f7             	mov    rdi,r14
    42c0:	e8 2b e1 ff ff       	call   23f0 <_ZNSt13basic_filebufIcSt11char_traitsIcEE4openEPKcSt13_Ios_Openmode@plt>
    42c5:	48 8b 14 24          	mov    rdx,QWORD PTR [rsp]
    42c9:	48 8b 7a e8          	mov    rdi,QWORD PTR [rdx-0x18]
    42cd:	48 01 ef             	add    rdi,rbp
    42d0:	48 85 c0             	test   rax,rax
    42d3:	0f 84 1c 01 00 00    	je     43f5 <_ZN8Bitboard13initConstantsEv+0x2f5>
    42d9:	31 f6                	xor    esi,esi
    42db:	e8 30 e2 ff ff       	call   2510 <_ZNSt9basic_iosIcSt11char_traitsIcEE5clearESt12_Ios_Iostate@plt>
    42e0:	48 8d 1d 99 50 00 00 	lea    rbx,[rip+0x5099]        # 9380 <_ZN9constants10rayAttacksE>
    42e7:	4c 8d a3 00 10 00 00 	lea    r12,[rbx+0x1000]
    42ee:	66 90                	xchg   ax,ax
    42f0:	ba 40 00 00 00       	mov    edx,0x40
    42f5:	48 89 de             	mov    rsi,rbx
    42f8:	48 89 ef             	mov    rdi,rbp
    42fb:	e8 60 e1 ff ff       	call   2460 <_ZNSi4readEPcl@plt>
    4300:	48 83 c3 40          	add    rbx,0x40
    4304:	49 39 dc             	cmp    r12,rbx
    4307:	75 e7                	jne    42f0 <_ZN8Bitboard13initConstantsEv+0x1f0>
    4309:	4c 89 f7             	mov    rdi,r14
    430c:	e8 df df ff ff       	call   22f0 <_ZNSt13basic_filebufIcSt11char_traitsIcEE5closeEv@plt>
    4311:	48 85 c0             	test   rax,rax
    4314:	0f 84 eb 00 00 00    	je     4405 <_ZN8Bitboard13initConstantsEv+0x305>
    431a:	48 b8 00 00 00 00 00 	movabs rax,0x1c00000000000000
    4321:	00 00 1c 
    4324:	4c 89 f7             	mov    rdi,r14
    4327:	48 c7 05 2e 4e 00 00 	mov    QWORD PTR [rip+0x4e2e],0x1c        # 9160 <_ZN9constants15castlingSquaresE>
    432e:	1c 00 00 00 
    4332:	48 89 05 37 4e 00 00 	mov    QWORD PTR [rip+0x4e37],rax        # 9170 <_ZN9constants15castlingSquaresE+0x10>
    4339:	48 b8 00 00 00 00 00 	movabs rax,0x7000000000000000
    4340:	00 00 70 
    4343:	48 89 05 2e 4e 00 00 	mov    QWORD PTR [rip+0x4e2e],rax        # 9178 <_ZN9constants15castlingSquaresE+0x18>
    434a:	48 8d 05 af 47 00 00 	lea    rax,[rip+0x47af]        # 8b00 <_ZTVSt14basic_ifstreamIcSt11char_traitsIcEE@@GLIBCXX_3.4+0x18>
    4351:	48 89 04 24          	mov    QWORD PTR [rsp],rax
    4355:	48 83 c0 28          	add    rax,0x28
    4359:	48 89 84 24 00 01 00 	mov    QWORD PTR [rsp+0x100],rax
    4360:	00 
    4361:	48 8d 05 e0 47 00 00 	lea    rax,[rip+0x47e0]        # 8b48 <_ZTVSt13basic_filebufIcSt11char_traitsIcEE@@GLIBCXX_3.4+0x10>
    4368:	48 c7 05 f5 4d 00 00 	mov    QWORD PTR [rip+0x4df5],0x70        # 9168 <_ZN9constants15castlingSquaresE+0x8>
    436f:	70 00 00 00 
    4373:	48 89 44 24 10       	mov    QWORD PTR [rsp+0x10],rax
    4378:	e8 73 df ff ff       	call   22f0 <_ZNSt13basic_filebufIcSt11char_traitsIcEE5closeEv@plt>
    437d:	48 8d 7c 24 78       	lea    rdi,[rsp+0x78]
    4382:	e8 d9 e1 ff ff       	call   2560 <_ZNSt12__basic_fileIcED1Ev@plt>
    4387:	48 8d 05 ca 46 00 00 	lea    rax,[rip+0x46ca]        # 8a58 <_ZTVSt15basic_streambufIcSt11char_traitsIcEE@@GLIBCXX_3.4+0x10>
    438e:	48 8d 7c 24 48       	lea    rdi,[rsp+0x48]
    4393:	48 89 44 24 10       	mov    QWORD PTR [rsp+0x10],rax
    4398:	e8 13 e1 ff ff       	call   24b0 <_ZNSt6localeD1Ev@plt>
    439d:	49 8b 45 e8          	mov    rax,QWORD PTR [r13-0x18]
    43a1:	48 8b 3d 20 48 00 00 	mov    rdi,QWORD PTR [rip+0x4820]        # 8bc8 <_ZTTSt14basic_ifstreamIcSt11char_traitsIcEE@@GLIBCXX_3.4+0x10>
    43a8:	4c 89 2c 24          	mov    QWORD PTR [rsp],r13
    43ac:	48 89 3c 04          	mov    QWORD PTR [rsp+rax*1],rdi
    43b0:	48 8d 05 31 46 00 00 	lea    rax,[rip+0x4631]        # 89e8 <_ZTVSt9basic_iosIcSt11char_traitsIcEE@@GLIBCXX_3.4+0x10>
    43b7:	4c 89 ff             	mov    rdi,r15
    43ba:	48 89 84 24 00 01 00 	mov    QWORD PTR [rsp+0x100],rax
    43c1:	00 
    43c2:	48 c7 44 24 08 00 00 	mov    QWORD PTR [rsp+0x8],0x0
    43c9:	00 00 
    43cb:	e8 70 df ff ff       	call   2340 <_ZNSt8ios_baseD2Ev@plt>
    43d0:	48 8b 84 24 08 02 00 	mov    rax,QWORD PTR [rsp+0x208]
    43d7:	00 
    43d8:	64 48 33 04 25 28 00 	xor    rax,QWORD PTR fs:0x28
    43df:	00 00 
    43e1:	75 3d                	jne    4420 <_ZN8Bitboard13initConstantsEv+0x320>
    43e3:	48 81 c4 18 02 00 00 	add    rsp,0x218
    43ea:	5b                   	pop    rbx
    43eb:	5d                   	pop    rbp
    43ec:	41 5c                	pop    r12
    43ee:	41 5d                	pop    r13
    43f0:	41 5e                	pop    r14
    43f2:	41 5f                	pop    r15
    43f4:	c3                   	ret    
    43f5:	8b 77 20             	mov    esi,DWORD PTR [rdi+0x20]
    43f8:	83 ce 04             	or     esi,0x4
    43fb:	e8 10 e1 ff ff       	call   2510 <_ZNSt9basic_iosIcSt11char_traitsIcEE5clearESt12_Ios_Iostate@plt>
    4400:	e9 db fe ff ff       	jmp    42e0 <_ZN8Bitboard13initConstantsEv+0x1e0>
    4405:	48 8b 04 24          	mov    rax,QWORD PTR [rsp]
    4409:	48 8b 78 e8          	mov    rdi,QWORD PTR [rax-0x18]
    440d:	48 01 ef             	add    rdi,rbp
    4410:	8b 77 20             	mov    esi,DWORD PTR [rdi+0x20]
    4413:	83 ce 04             	or     esi,0x4
    4416:	e8 f5 e0 ff ff       	call   2510 <_ZNSt9basic_iosIcSt11char_traitsIcEE5clearESt12_Ios_Iostate@plt>
    441b:	e9 fa fe ff ff       	jmp    431a <_ZN8Bitboard13initConstantsEv+0x21a>
    4420:	e8 0b e0 ff ff       	call   2430 <__stack_chk_fail@plt>
    4425:	f3 0f 1e fa          	endbr64 
    4429:	48 89 c5             	mov    rbp,rax
    442c:	c5 f8 77             	vzeroupper 
    442f:	e9 eb e1 ff ff       	jmp    261f <_ZN8Bitboard13initConstantsEv.cold+0xb>
    4434:	f3 0f 1e fa          	endbr64 
    4438:	48 89 c5             	mov    rbp,rax
    443b:	c5 f8 77             	vzeroupper 
    443e:	e9 f8 e1 ff ff       	jmp    263b <_ZN8Bitboard13initConstantsEv.cold+0x27>
    4443:	f3 0f 1e fa          	endbr64 
    4447:	49 89 c4             	mov    r12,rax
    444a:	e9 0b e2 ff ff       	jmp    265a <_ZN8Bitboard13initConstantsEv.cold+0x46>
    444f:	f3 0f 1e fa          	endbr64 
    4453:	48 89 c5             	mov    rbp,rax
    4456:	e9 b9 e1 ff ff       	jmp    2614 <_ZN8Bitboard13initConstantsEv.cold>
    445b:	f3 0f 1e fa          	endbr64 
    445f:	48 89 c7             	mov    rdi,rax
    4462:	e9 06 e2 ff ff       	jmp    266d <_ZN8Bitboard13initConstantsEv.cold+0x59>
    4467:	90                   	nop
    4468:	0f 1f 84 00 00 00 00 	nop    DWORD PTR [rax+rax*1+0x0]
    446f:	00 

0000000000004470 <_ZN8BitboardC1ENSt7__cxx1112basic_stringIcSt11char_traitsIcESaIcEEE>:
    4470:	f3 0f 1e fa          	endbr64 
    4474:	41 57                	push   r15
    4476:	41 56                	push   r14
    4478:	49 89 f6             	mov    r14,rsi
    447b:	41 55                	push   r13
    447d:	41 54                	push   r12
    447f:	55                   	push   rbp
    4480:	53                   	push   rbx
    4481:	48 89 fb             	mov    rbx,rdi
    4484:	48 81 ec 48 02 00 00 	sub    rsp,0x248
    448b:	64 48 8b 04 25 28 00 	mov    rax,QWORD PTR fs:0x28
    4492:	00 00 
    4494:	48 89 84 24 38 02 00 	mov    QWORD PTR [rsp+0x238],rax
    449b:	00 
    449c:	31 c0                	xor    eax,eax
    449e:	48 c7 47 08 00 00 00 	mov    QWORD PTR [rdi+0x8],0x0
    44a5:	00 
    44a6:	48 8d 84 24 28 01 00 	lea    rax,[rsp+0x128]
    44ad:	00 
    44ae:	48 8d ac 24 b0 00 00 	lea    rbp,[rsp+0xb0]
    44b5:	00 
    44b6:	48 c7 07 00 00 00 00 	mov    QWORD PTR [rdi],0x0
    44bd:	48 c7 47 10 00 00 00 	mov    QWORD PTR [rdi+0x10],0x0
    44c4:	00 
    44c5:	48 c7 47 18 00 00 00 	mov    QWORD PTR [rdi+0x18],0x0
    44cc:	00 
    44cd:	48 c7 47 20 00 00 00 	mov    QWORD PTR [rdi+0x20],0x0
    44d4:	00 
    44d5:	48 c7 47 28 00 00 00 	mov    QWORD PTR [rdi+0x28],0x0
    44dc:	00 
    44dd:	48 c7 47 30 00 00 00 	mov    QWORD PTR [rdi+0x30],0x0
    44e4:	00 
    44e5:	48 c7 47 38 00 00 00 	mov    QWORD PTR [rdi+0x38],0x0
    44ec:	00 
    44ed:	48 89 c7             	mov    rdi,rax
    44f0:	48 89 44 24 10       	mov    QWORD PTR [rsp+0x10],rax
    44f5:	e8 26 de ff ff       	call   2320 <_ZNSt8ios_baseC2Ev@plt>
    44fa:	48 8d 05 e7 44 00 00 	lea    rax,[rip+0x44e7]        # 89e8 <_ZTVSt9basic_iosIcSt11char_traitsIcEE@@GLIBCXX_3.4+0x10>
    4501:	48 8b 0d d0 45 00 00 	mov    rcx,QWORD PTR [rip+0x45d0]        # 8ad8 <_ZTTNSt7__cxx1119basic_istringstreamIcSt11char_traitsIcESaIcEEE@@GLIBCXX_3.4.21+0x10>
    4508:	31 f6                	xor    esi,esi
    450a:	48 89 84 24 28 01 00 	mov    QWORD PTR [rsp+0x128],rax
    4511:	00 
    4512:	31 c0                	xor    eax,eax
    4514:	66 89 84 24 08 02 00 	mov    WORD PTR [rsp+0x208],ax
    451b:	00 
    451c:	48 8b 05 ad 45 00 00 	mov    rax,QWORD PTR [rip+0x45ad]        # 8ad0 <_ZTTNSt7__cxx1119basic_istringstreamIcSt11char_traitsIcESaIcEEE@@GLIBCXX_3.4.21+0x8>
    4523:	48 c7 84 24 00 02 00 	mov    QWORD PTR [rsp+0x200],0x0
    452a:	00 00 00 00 00 
    452f:	48 89 84 24 b0 00 00 	mov    QWORD PTR [rsp+0xb0],rax
    4536:	00 
    4537:	48 8b 40 e8          	mov    rax,QWORD PTR [rax-0x18]
    453b:	48 c7 84 24 10 02 00 	mov    QWORD PTR [rsp+0x210],0x0
    4542:	00 00 00 00 00 
    4547:	48 c7 84 24 18 02 00 	mov    QWORD PTR [rsp+0x218],0x0
    454e:	00 00 00 00 00 
    4553:	48 c7 84 24 20 02 00 	mov    QWORD PTR [rsp+0x220],0x0
    455a:	00 00 00 00 00 
    455f:	48 c7 84 24 28 02 00 	mov    QWORD PTR [rsp+0x228],0x0
    4566:	00 00 00 00 00 
    456b:	48 89 8c 04 b0 00 00 	mov    QWORD PTR [rsp+rax*1+0xb0],rcx
    4572:	00 
    4573:	48 8b 05 56 45 00 00 	mov    rax,QWORD PTR [rip+0x4556]        # 8ad0 <_ZTTNSt7__cxx1119basic_istringstreamIcSt11char_traitsIcESaIcEEE@@GLIBCXX_3.4.21+0x8>
    457a:	48 c7 84 24 b8 00 00 	mov    QWORD PTR [rsp+0xb8],0x0
    4581:	00 00 00 00 00 
    4586:	48 8b 78 e8          	mov    rdi,QWORD PTR [rax-0x18]
    458a:	48 01 ef             	add    rdi,rbp
    458d:	e8 0e df ff ff       	call   24a0 <_ZNSt9basic_iosIcSt11char_traitsIcEE4initEPSt15basic_streambufIcS1_E@plt>
    4592:	48 8d 05 77 44 00 00 	lea    rax,[rip+0x4477]        # 8a10 <_ZTVNSt7__cxx1119basic_istringstreamIcSt11char_traitsIcESaIcEEE@@GLIBCXX_3.4.21+0x18>
    4599:	48 c7 84 24 c8 00 00 	mov    QWORD PTR [rsp+0xc8],0x0
    45a0:	00 00 00 00 00 
    45a5:	48 89 84 24 b0 00 00 	mov    QWORD PTR [rsp+0xb0],rax
    45ac:	00 
    45ad:	48 83 c0 28          	add    rax,0x28
    45b1:	48 89 84 24 28 01 00 	mov    QWORD PTR [rsp+0x128],rax
    45b8:	00 
    45b9:	48 8d 05 98 44 00 00 	lea    rax,[rip+0x4498]        # 8a58 <_ZTVSt15basic_streambufIcSt11char_traitsIcEE@@GLIBCXX_3.4+0x10>
    45c0:	48 89 84 24 c0 00 00 	mov    QWORD PTR [rsp+0xc0],rax
    45c7:	00 
    45c8:	48 8d 84 24 f8 00 00 	lea    rax,[rsp+0xf8]
    45cf:	00 
    45d0:	48 89 c7             	mov    rdi,rax
    45d3:	48 89 44 24 20       	mov    QWORD PTR [rsp+0x20],rax
    45d8:	48 c7 84 24 d0 00 00 	mov    QWORD PTR [rsp+0xd0],0x0
    45df:	00 00 00 00 00 
    45e4:	48 c7 84 24 d8 00 00 	mov    QWORD PTR [rsp+0xd8],0x0
    45eb:	00 00 00 00 00 
    45f0:	48 c7 84 24 e0 00 00 	mov    QWORD PTR [rsp+0xe0],0x0
    45f7:	00 00 00 00 00 
    45fc:	48 c7 84 24 e8 00 00 	mov    QWORD PTR [rsp+0xe8],0x0
    4603:	00 00 00 00 00 
    4608:	48 c7 84 24 f0 00 00 	mov    QWORD PTR [rsp+0xf0],0x0
    460f:	00 00 00 00 00 
    4614:	e8 57 df ff ff       	call   2570 <_ZNSt6localeC1Ev@plt>
    4619:	49 8b 36             	mov    rsi,QWORD PTR [r14]
    461c:	49 8b 56 08          	mov    rdx,QWORD PTR [r14+0x8]
    4620:	48 8d 05 c1 45 00 00 	lea    rax,[rip+0x45c1]        # 8be8 <_ZTVNSt7__cxx1115basic_stringbufIcSt11char_traitsIcESaIcEEE@@GLIBCXX_3.4.21+0x10>
    4627:	48 89 84 24 c0 00 00 	mov    QWORD PTR [rsp+0xc0],rax
    462e:	00 
    462f:	48 8d bc 24 08 01 00 	lea    rdi,[rsp+0x108]
    4636:	00 
    4637:	48 8d 84 24 18 01 00 	lea    rax,[rsp+0x118]
    463e:	00 
    463f:	48 01 f2             	add    rdx,rsi
    4642:	48 89 44 24 28       	mov    QWORD PTR [rsp+0x28],rax
    4647:	c7 84 24 00 01 00 00 	mov    DWORD PTR [rsp+0x100],0x0
    464e:	00 00 00 00 
    4652:	48 89 84 24 08 01 00 	mov    QWORD PTR [rsp+0x108],rax
    4659:	00 
    465a:	e8 c1 14 00 00       	call   5b20 <_ZNSt7__cxx1112basic_stringIcSt11char_traitsIcESaIcEE12_M_constructIPKcEEvT_S8_St20forward_iterator_tag>
    465f:	4c 8d b4 24 c0 00 00 	lea    r14,[rsp+0xc0]
    4666:	00 
    4667:	48 8b b4 24 08 01 00 	mov    rsi,QWORD PTR [rsp+0x108]
    466e:	00 
    466f:	31 c9                	xor    ecx,ecx
    4671:	31 d2                	xor    edx,edx
    4673:	c7 84 24 00 01 00 00 	mov    DWORD PTR [rsp+0x100],0x8
    467a:	08 00 00 00 
    467e:	4c 89 f7             	mov    rdi,r14
    4681:	e8 0a de ff ff       	call   2490 <_ZNSt7__cxx1115basic_stringbufIcSt11char_traitsIcESaIcEE7_M_syncEPcmm@plt>
    4686:	48 8b 7c 24 10       	mov    rdi,QWORD PTR [rsp+0x10]
    468b:	4c 89 f6             	mov    rsi,r14
    468e:	e8 0d de ff ff       	call   24a0 <_ZNSt9basic_iosIcSt11char_traitsIcEE4initEPSt15basic_streambufIcS1_E@plt>
    4693:	48 8d 44 24 60       	lea    rax,[rsp+0x60]
    4698:	48 8d 74 24 50       	lea    rsi,[rsp+0x50]
    469d:	48 89 ef             	mov    rdi,rbp
    46a0:	48 c7 44 24 58 00 00 	mov    QWORD PTR [rsp+0x58],0x0
    46a7:	00 00 
    46a9:	48 89 44 24 30       	mov    QWORD PTR [rsp+0x30],rax
    46ae:	48 89 44 24 50       	mov    QWORD PTR [rsp+0x50],rax
    46b3:	c6 44 24 60 00       	mov    BYTE PTR [rsp+0x60],0x0
    46b8:	e8 c3 dd ff ff       	call   2480 <_ZStrsIcSt11char_traitsIcESaIcEERSt13basic_istreamIT_T0_ES7_RNSt7__cxx1112basic_stringIS4_S5_T1_EE@plt>
    46bd:	48 8b 74 24 50       	mov    rsi,QWORD PTR [rsp+0x50]
    46c2:	4c 8b 7c 24 58       	mov    r15,QWORD PTR [rsp+0x58]
    46c7:	45 31 ed             	xor    r13d,r13d
    46ca:	41 bc 07 00 00 00    	mov    r12d,0x7
    46d0:	49 01 f7             	add    r15,rsi
    46d3:	49 89 f6             	mov    r14,rsi
    46d6:	4c 39 fe             	cmp    rsi,r15
    46d9:	74 4a                	je     4725 <_ZN8BitboardC1ENSt7__cxx1112basic_stringIcSt11char_traitsIcESaIcEEE+0x2b5>
    46db:	48 89 6c 24 38       	mov    QWORD PTR [rsp+0x38],rbp
    46e0:	4c 89 e5             	mov    rbp,r12
    46e3:	eb 21                	jmp    4706 <_ZN8BitboardC1ENSt7__cxx1112basic_stringIcSt11char_traitsIcESaIcEEE+0x296>
    46e5:	0f 1f 00             	nop    DWORD PTR [rax]
    46e8:	41 0f be fc          	movsx  edi,r12b
    46ec:	8d 47 d0             	lea    eax,[rdi-0x30]
    46ef:	83 f8 09             	cmp    eax,0x9
    46f2:	0f 87 e8 01 00 00    	ja     48e0 <_ZN8BitboardC1ENSt7__cxx1112basic_stringIcSt11char_traitsIcESaIcEEE+0x470>
    46f8:	48 98                	cdqe   
    46fa:	49 01 c5             	add    r13,rax
    46fd:	49 83 c6 01          	add    r14,0x1
    4701:	4d 39 fe             	cmp    r14,r15
    4704:	74 1a                	je     4720 <_ZN8BitboardC1ENSt7__cxx1112basic_stringIcSt11char_traitsIcESaIcEEE+0x2b0>
    4706:	45 0f b6 26          	movzx  r12d,BYTE PTR [r14]
    470a:	41 80 fc 2f          	cmp    r12b,0x2f
    470e:	75 d8                	jne    46e8 <_ZN8BitboardC1ENSt7__cxx1112basic_stringIcSt11char_traitsIcESaIcEEE+0x278>
    4710:	49 83 c6 01          	add    r14,0x1
    4714:	48 83 ed 01          	sub    rbp,0x1
    4718:	45 31 ed             	xor    r13d,r13d
    471b:	4d 39 fe             	cmp    r14,r15
    471e:	75 e6                	jne    4706 <_ZN8BitboardC1ENSt7__cxx1112basic_stringIcSt11char_traitsIcESaIcEEE+0x296>
    4720:	48 8b 6c 24 38       	mov    rbp,QWORD PTR [rsp+0x38]
    4725:	4c 8d 7c 24 70       	lea    r15,[rsp+0x70]
    472a:	48 89 ef             	mov    rdi,rbp
    472d:	4c 8d b4 24 80 00 00 	lea    r14,[rsp+0x80]
    4734:	00 
    4735:	48 c7 44 24 78 00 00 	mov    QWORD PTR [rsp+0x78],0x0
    473c:	00 00 
    473e:	4c 89 fe             	mov    rsi,r15
    4741:	4c 89 74 24 70       	mov    QWORD PTR [rsp+0x70],r14
    4746:	c6 84 24 80 00 00 00 	mov    BYTE PTR [rsp+0x80],0x0
    474d:	00 
    474e:	e8 2d dd ff ff       	call   2480 <_ZStrsIcSt11char_traitsIcESaIcEERSt13basic_istreamIT_T0_ES7_RNSt7__cxx1112basic_stringIS4_S5_T1_EE@plt>
    4753:	48 8b 44 24 70       	mov    rax,QWORD PTR [rsp+0x70]
    4758:	c6 43 48 00          	mov    BYTE PTR [rbx+0x48],0x0
    475c:	4c 89 fe             	mov    rsi,r15
    475f:	48 89 ef             	mov    rdi,rbp
    4762:	80 38 77             	cmp    BYTE PTR [rax],0x77
    4765:	0f 95 43 49          	setne  BYTE PTR [rbx+0x49]
    4769:	e8 12 dd ff ff       	call   2480 <_ZStrsIcSt11char_traitsIcESaIcEERSt13basic_istreamIT_T0_ES7_RNSt7__cxx1112basic_stringIS4_S5_T1_EE@plt>
    476e:	48 8b 54 24 78       	mov    rdx,QWORD PTR [rsp+0x78]
    4773:	48 8b 44 24 70       	mov    rax,QWORD PTR [rsp+0x70]
    4778:	48 8d 0c 02          	lea    rcx,[rdx+rax*1]
    477c:	48 85 d2             	test   rdx,rdx
    477f:	75 30                	jne    47b1 <_ZN8BitboardC1ENSt7__cxx1112basic_stringIcSt11char_traitsIcESaIcEEE+0x341>
    4781:	eb 43                	jmp    47c6 <_ZN8BitboardC1ENSt7__cxx1112basic_stringIcSt11char_traitsIcESaIcEEE+0x356>
    4783:	0f 1f 44 00 00       	nop    DWORD PTR [rax+rax*1+0x0]
    4788:	80 fa 51             	cmp    dl,0x51
    478b:	0f 84 cf 01 00 00    	je     4960 <_ZN8BitboardC1ENSt7__cxx1112basic_stringIcSt11char_traitsIcESaIcEEE+0x4f0>
    4791:	80 fa 6b             	cmp    dl,0x6b
    4794:	0f 84 d6 01 00 00    	je     4970 <_ZN8BitboardC1ENSt7__cxx1112basic_stringIcSt11char_traitsIcESaIcEEE+0x500>
    479a:	80 fa 71             	cmp    dl,0x71
    479d:	75 09                	jne    47a8 <_ZN8BitboardC1ENSt7__cxx1112basic_stringIcSt11char_traitsIcESaIcEEE+0x338>
    479f:	80 4b 48 08          	or     BYTE PTR [rbx+0x48],0x8
    47a3:	0f 1f 44 00 00       	nop    DWORD PTR [rax+rax*1+0x0]
    47a8:	48 83 c0 01          	add    rax,0x1
    47ac:	48 39 c1             	cmp    rcx,rax
    47af:	74 15                	je     47c6 <_ZN8BitboardC1ENSt7__cxx1112basic_stringIcSt11char_traitsIcESaIcEEE+0x356>
    47b1:	0f b6 10             	movzx  edx,BYTE PTR [rax]
    47b4:	80 fa 4b             	cmp    dl,0x4b
    47b7:	75 cf                	jne    4788 <_ZN8BitboardC1ENSt7__cxx1112basic_stringIcSt11char_traitsIcESaIcEEE+0x318>
    47b9:	48 83 c0 01          	add    rax,0x1
    47bd:	80 4b 48 01          	or     BYTE PTR [rbx+0x48],0x1
    47c1:	48 39 c1             	cmp    rcx,rax
    47c4:	75 eb                	jne    47b1 <_ZN8BitboardC1ENSt7__cxx1112basic_stringIcSt11char_traitsIcESaIcEEE+0x341>
    47c6:	4c 89 fe             	mov    rsi,r15
    47c9:	48 89 ef             	mov    rdi,rbp
    47cc:	e8 af dc ff ff       	call   2480 <_ZStrsIcSt11char_traitsIcESaIcEERSt13basic_istreamIT_T0_ES7_RNSt7__cxx1112basic_stringIS4_S5_T1_EE@plt>
    47d1:	48 8d 35 13 19 00 00 	lea    rsi,[rip+0x1913]        # 60eb <_IO_stdin_used+0xeb>
    47d8:	4c 89 ff             	mov    rdi,r15
    47db:	e8 30 db ff ff       	call   2310 <_ZNKSt7__cxx1112basic_stringIcSt11char_traitsIcESaIcEE7compareEPKc@plt>
    47e0:	85 c0                	test   eax,eax
    47e2:	0f 85 e8 01 00 00    	jne    49d0 <_ZN8BitboardC1ENSt7__cxx1112basic_stringIcSt11char_traitsIcESaIcEEE+0x560>
    47e8:	48 c7 43 40 00 00 00 	mov    QWORD PTR [rbx+0x40],0x0
    47ef:	00 
    47f0:	48 8b 7c 24 70       	mov    rdi,QWORD PTR [rsp+0x70]
    47f5:	4c 39 f7             	cmp    rdi,r14
    47f8:	74 05                	je     47ff <_ZN8BitboardC1ENSt7__cxx1112basic_stringIcSt11char_traitsIcESaIcEEE+0x38f>
    47fa:	e8 01 dc ff ff       	call   2400 <_ZdlPv@plt>
    47ff:	48 8b 7c 24 50       	mov    rdi,QWORD PTR [rsp+0x50]
    4804:	48 3b 7c 24 30       	cmp    rdi,QWORD PTR [rsp+0x30]
    4809:	74 05                	je     4810 <_ZN8BitboardC1ENSt7__cxx1112basic_stringIcSt11char_traitsIcESaIcEEE+0x3a0>
    480b:	e8 f0 db ff ff       	call   2400 <_ZdlPv@plt>
    4810:	48 8d 05 f9 41 00 00 	lea    rax,[rip+0x41f9]        # 8a10 <_ZTVNSt7__cxx1119basic_istringstreamIcSt11char_traitsIcESaIcEEE@@GLIBCXX_3.4.21+0x18>
    4817:	48 8b bc 24 08 01 00 	mov    rdi,QWORD PTR [rsp+0x108]
    481e:	00 
    481f:	48 89 84 24 b0 00 00 	mov    QWORD PTR [rsp+0xb0],rax
    4826:	00 
    4827:	48 83 c0 28          	add    rax,0x28
    482b:	48 89 84 24 28 01 00 	mov    QWORD PTR [rsp+0x128],rax
    4832:	00 
    4833:	48 8d 05 ae 43 00 00 	lea    rax,[rip+0x43ae]        # 8be8 <_ZTVNSt7__cxx1115basic_stringbufIcSt11char_traitsIcESaIcEEE@@GLIBCXX_3.4.21+0x10>
    483a:	48 89 84 24 c0 00 00 	mov    QWORD PTR [rsp+0xc0],rax
    4841:	00 
    4842:	48 3b 7c 24 28       	cmp    rdi,QWORD PTR [rsp+0x28]
    4847:	74 05                	je     484e <_ZN8BitboardC1ENSt7__cxx1112basic_stringIcSt11char_traitsIcESaIcEEE+0x3de>
    4849:	e8 b2 db ff ff       	call   2400 <_ZdlPv@plt>
    484e:	48 8b 7c 24 20       	mov    rdi,QWORD PTR [rsp+0x20]
    4853:	48 8d 05 fe 41 00 00 	lea    rax,[rip+0x41fe]        # 8a58 <_ZTVSt15basic_streambufIcSt11char_traitsIcEE@@GLIBCXX_3.4+0x10>
    485a:	48 89 84 24 c0 00 00 	mov    QWORD PTR [rsp+0xc0],rax
    4861:	00 
    4862:	e8 49 dc ff ff       	call   24b0 <_ZNSt6localeD1Ev@plt>
    4867:	48 8b 05 62 42 00 00 	mov    rax,QWORD PTR [rip+0x4262]        # 8ad0 <_ZTTNSt7__cxx1119basic_istringstreamIcSt11char_traitsIcESaIcEEE@@GLIBCXX_3.4.21+0x8>
    486e:	48 8b 7c 24 10       	mov    rdi,QWORD PTR [rsp+0x10]
    4873:	48 8b 0d 5e 42 00 00 	mov    rcx,QWORD PTR [rip+0x425e]        # 8ad8 <_ZTTNSt7__cxx1119basic_istringstreamIcSt11char_traitsIcESaIcEEE@@GLIBCXX_3.4.21+0x10>
    487a:	48 89 84 24 b0 00 00 	mov    QWORD PTR [rsp+0xb0],rax
    4881:	00 
    4882:	48 8b 40 e8          	mov    rax,QWORD PTR [rax-0x18]
    4886:	48 89 8c 04 b0 00 00 	mov    QWORD PTR [rsp+rax*1+0xb0],rcx
    488d:	00 
    488e:	48 8d 05 53 41 00 00 	lea    rax,[rip+0x4153]        # 89e8 <_ZTVSt9basic_iosIcSt11char_traitsIcEE@@GLIBCXX_3.4+0x10>
    4895:	48 89 84 24 28 01 00 	mov    QWORD PTR [rsp+0x128],rax
    489c:	00 
    489d:	48 c7 84 24 b8 00 00 	mov    QWORD PTR [rsp+0xb8],0x0
    48a4:	00 00 00 00 00 
    48a9:	e8 92 da ff ff       	call   2340 <_ZNSt8ios_baseD2Ev@plt>
    48ae:	48 8b 84 24 38 02 00 	mov    rax,QWORD PTR [rsp+0x238]
    48b5:	00 
    48b6:	64 48 33 04 25 28 00 	xor    rax,QWORD PTR fs:0x28
    48bd:	00 00 
    48bf:	0f 85 08 02 00 00    	jne    4acd <_ZN8BitboardC1ENSt7__cxx1112basic_stringIcSt11char_traitsIcESaIcEEE+0x65d>
    48c5:	48 81 c4 48 02 00 00 	add    rsp,0x248
    48cc:	5b                   	pop    rbx
    48cd:	5d                   	pop    rbp
    48ce:	41 5c                	pop    r12
    48d0:	41 5d                	pop    r13
    48d2:	41 5e                	pop    r14
    48d4:	41 5f                	pop    r15
    48d6:	c3                   	ret    
    48d7:	66 0f 1f 84 00 00 00 	nop    WORD PTR [rax+rax*1+0x0]
    48de:	00 00 
    48e0:	89 7c 24 0c          	mov    DWORD PTR [rsp+0xc],edi
    48e4:	e8 d7 da ff ff       	call   23c0 <isupper@plt>
    48e9:	49 8d 4c ed 00       	lea    rcx,[r13+rbp*8+0x0]
    48ee:	be 01 00 00 00       	mov    esi,0x1
    48f3:	48 d3 e6             	shl    rsi,cl
    48f6:	48 89 f1             	mov    rcx,rsi
    48f9:	85 c0                	test   eax,eax
    48fb:	74 53                	je     4950 <_ZN8BitboardC1ENSt7__cxx1112basic_stringIcSt11char_traitsIcESaIcEEE+0x4e0>
    48fd:	48 09 33             	or     QWORD PTR [rbx],rsi
    4900:	8b 7c 24 0c          	mov    edi,DWORD PTR [rsp+0xc]
    4904:	48 89 74 24 18       	mov    QWORD PTR [rsp+0x18],rsi
    4909:	e8 b2 db ff ff       	call   24c0 <tolower@plt>
    490e:	48 8b 4c 24 18       	mov    rcx,QWORD PTR [rsp+0x18]
    4913:	41 89 c4             	mov    r12d,eax
    4916:	41 8d 44 24 9e       	lea    eax,[r12-0x62]
    491b:	3c 10                	cmp    al,0x10
    491d:	77 21                	ja     4940 <_ZN8BitboardC1ENSt7__cxx1112basic_stringIcSt11char_traitsIcESaIcEEE+0x4d0>
    491f:	48 8d 35 36 18 00 00 	lea    rsi,[rip+0x1836]        # 615c <_IO_stdin_used+0x15c>
    4926:	0f b6 c0             	movzx  eax,al
    4929:	48 63 04 86          	movsxd rax,DWORD PTR [rsi+rax*4]
    492d:	48 01 f0             	add    rax,rsi
    4930:	3e ff e0             	notrack jmp rax
    4933:	0f 1f 44 00 00       	nop    DWORD PTR [rax+rax*1+0x0]
    4938:	48 09 4b 38          	or     QWORD PTR [rbx+0x38],rcx
    493c:	0f 1f 40 00          	nop    DWORD PTR [rax+0x0]
    4940:	49 83 c5 01          	add    r13,0x1
    4944:	e9 b4 fd ff ff       	jmp    46fd <_ZN8BitboardC1ENSt7__cxx1112basic_stringIcSt11char_traitsIcESaIcEEE+0x28d>
    4949:	0f 1f 80 00 00 00 00 	nop    DWORD PTR [rax+0x0]
    4950:	48 09 73 08          	or     QWORD PTR [rbx+0x8],rsi
    4954:	eb c0                	jmp    4916 <_ZN8BitboardC1ENSt7__cxx1112basic_stringIcSt11char_traitsIcESaIcEEE+0x4a6>
    4956:	66 2e 0f 1f 84 00 00 	nop    WORD PTR cs:[rax+rax*1+0x0]
    495d:	00 00 00 
    4960:	80 4b 48 02          	or     BYTE PTR [rbx+0x48],0x2
    4964:	e9 3f fe ff ff       	jmp    47a8 <_ZN8BitboardC1ENSt7__cxx1112basic_stringIcSt11char_traitsIcESaIcEEE+0x338>
    4969:	0f 1f 80 00 00 00 00 	nop    DWORD PTR [rax+0x0]
    4970:	80 4b 48 04          	or     BYTE PTR [rbx+0x48],0x4
    4974:	e9 2f fe ff ff       	jmp    47a8 <_ZN8BitboardC1ENSt7__cxx1112basic_stringIcSt11char_traitsIcESaIcEEE+0x338>
    4979:	0f 1f 80 00 00 00 00 	nop    DWORD PTR [rax+0x0]
    4980:	48 09 4b 28          	or     QWORD PTR [rbx+0x28],rcx
    4984:	49 83 c5 01          	add    r13,0x1
    4988:	e9 70 fd ff ff       	jmp    46fd <_ZN8BitboardC1ENSt7__cxx1112basic_stringIcSt11char_traitsIcESaIcEEE+0x28d>
    498d:	0f 1f 00             	nop    DWORD PTR [rax]
    4990:	48 09 4b 30          	or     QWORD PTR [rbx+0x30],rcx
    4994:	49 83 c5 01          	add    r13,0x1
    4998:	e9 60 fd ff ff       	jmp    46fd <_ZN8BitboardC1ENSt7__cxx1112basic_stringIcSt11char_traitsIcESaIcEEE+0x28d>
    499d:	0f 1f 00             	nop    DWORD PTR [rax]
    49a0:	48 09 4b 10          	or     QWORD PTR [rbx+0x10],rcx
    49a4:	49 83 c5 01          	add    r13,0x1
    49a8:	e9 50 fd ff ff       	jmp    46fd <_ZN8BitboardC1ENSt7__cxx1112basic_stringIcSt11char_traitsIcESaIcEEE+0x28d>
    49ad:	0f 1f 00             	nop    DWORD PTR [rax]
    49b0:	48 09 4b 18          	or     QWORD PTR [rbx+0x18],rcx
    49b4:	49 83 c5 01          	add    r13,0x1
    49b8:	e9 40 fd ff ff       	jmp    46fd <_ZN8BitboardC1ENSt7__cxx1112basic_stringIcSt11char_traitsIcESaIcEEE+0x28d>
    49bd:	0f 1f 00             	nop    DWORD PTR [rax]
    49c0:	48 09 4b 20          	or     QWORD PTR [rbx+0x20],rcx
    49c4:	49 83 c5 01          	add    r13,0x1
    49c8:	e9 30 fd ff ff       	jmp    46fd <_ZN8BitboardC1ENSt7__cxx1112basic_stringIcSt11char_traitsIcESaIcEEE+0x28d>
    49cd:	0f 1f 00             	nop    DWORD PTR [rax]
    49d0:	48 8d 84 24 a0 00 00 	lea    rax,[rsp+0xa0]
    49d7:	00 
    49d8:	4c 8b 7c 24 78       	mov    r15,QWORD PTR [rsp+0x78]
    49dd:	48 89 84 24 90 00 00 	mov    QWORD PTR [rsp+0x90],rax
    49e4:	00 
    49e5:	49 89 c5             	mov    r13,rax
    49e8:	48 8b 44 24 70       	mov    rax,QWORD PTR [rsp+0x70]
    49ed:	48 89 c1             	mov    rcx,rax
    49f0:	49 89 c4             	mov    r12,rax
    49f3:	4c 01 f9             	add    rcx,r15
    49f6:	74 09                	je     4a01 <_ZN8BitboardC1ENSt7__cxx1112basic_stringIcSt11char_traitsIcESaIcEEE+0x591>
    49f8:	48 85 c0             	test   rax,rax
    49fb:	0f 84 c0 00 00 00    	je     4ac1 <_ZN8BitboardC1ENSt7__cxx1112basic_stringIcSt11char_traitsIcESaIcEEE+0x651>
    4a01:	4c 89 7c 24 48       	mov    QWORD PTR [rsp+0x48],r15
    4a06:	49 83 ff 0f          	cmp    r15,0xf
    4a0a:	77 6c                	ja     4a78 <_ZN8BitboardC1ENSt7__cxx1112basic_stringIcSt11char_traitsIcESaIcEEE+0x608>
    4a0c:	49 83 ff 01          	cmp    r15,0x1
    4a10:	75 56                	jne    4a68 <_ZN8BitboardC1ENSt7__cxx1112basic_stringIcSt11char_traitsIcESaIcEEE+0x5f8>
    4a12:	41 0f b6 04 24       	movzx  eax,BYTE PTR [r12]
    4a17:	88 84 24 a0 00 00 00 	mov    BYTE PTR [rsp+0xa0],al
    4a1e:	4c 89 e8             	mov    rax,r13
    4a21:	4c 89 bc 24 98 00 00 	mov    QWORD PTR [rsp+0x98],r15
    4a28:	00 
    4a29:	42 c6 04 38 00       	mov    BYTE PTR [rax+r15*1],0x0
    4a2e:	48 8b bc 24 90 00 00 	mov    rdi,QWORD PTR [rsp+0x90]
    4a35:	00 
    4a36:	0f be 07             	movsx  eax,BYTE PTR [rdi]
    4a39:	0f be 57 01          	movsx  edx,BYTE PTR [rdi+0x1]
    4a3d:	8d 8c d0 17 fe ff ff 	lea    ecx,[rax+rdx*8-0x1e9]
    4a44:	b8 01 00 00 00       	mov    eax,0x1
    4a49:	48 d3 e0             	shl    rax,cl
    4a4c:	48 89 43 40          	mov    QWORD PTR [rbx+0x40],rax
    4a50:	4c 39 ef             	cmp    rdi,r13
    4a53:	0f 84 97 fd ff ff    	je     47f0 <_ZN8BitboardC1ENSt7__cxx1112basic_stringIcSt11char_traitsIcESaIcEEE+0x380>
    4a59:	e8 a2 d9 ff ff       	call   2400 <_ZdlPv@plt>
    4a5e:	e9 8d fd ff ff       	jmp    47f0 <_ZN8BitboardC1ENSt7__cxx1112basic_stringIcSt11char_traitsIcESaIcEEE+0x380>
    4a63:	0f 1f 44 00 00       	nop    DWORD PTR [rax+rax*1+0x0]
    4a68:	4d 85 ff             	test   r15,r15
    4a6b:	75 65                	jne    4ad2 <_ZN8BitboardC1ENSt7__cxx1112basic_stringIcSt11char_traitsIcESaIcEEE+0x662>
    4a6d:	4c 89 e8             	mov    rax,r13
    4a70:	eb af                	jmp    4a21 <_ZN8BitboardC1ENSt7__cxx1112basic_stringIcSt11char_traitsIcESaIcEEE+0x5b1>
    4a72:	66 0f 1f 44 00 00    	nop    WORD PTR [rax+rax*1+0x0]
    4a78:	48 8d 74 24 48       	lea    rsi,[rsp+0x48]
    4a7d:	48 8d bc 24 90 00 00 	lea    rdi,[rsp+0x90]
    4a84:	00 
    4a85:	31 d2                	xor    edx,edx
    4a87:	e8 b4 da ff ff       	call   2540 <_ZNSt7__cxx1112basic_stringIcSt11char_traitsIcESaIcEE9_M_createERmm@plt>
    4a8c:	48 89 84 24 90 00 00 	mov    QWORD PTR [rsp+0x90],rax
    4a93:	00 
    4a94:	48 89 c7             	mov    rdi,rax
    4a97:	48 8b 44 24 48       	mov    rax,QWORD PTR [rsp+0x48]
    4a9c:	48 89 84 24 a0 00 00 	mov    QWORD PTR [rsp+0xa0],rax
    4aa3:	00 
    4aa4:	4c 89 fa             	mov    rdx,r15
    4aa7:	4c 89 e6             	mov    rsi,r12
    4aaa:	e8 21 d9 ff ff       	call   23d0 <memcpy@plt>
    4aaf:	4c 8b 7c 24 48       	mov    r15,QWORD PTR [rsp+0x48]
    4ab4:	48 8b 84 24 90 00 00 	mov    rax,QWORD PTR [rsp+0x90]
    4abb:	00 
    4abc:	e9 60 ff ff ff       	jmp    4a21 <_ZN8BitboardC1ENSt7__cxx1112basic_stringIcSt11char_traitsIcESaIcEEE+0x5b1>
    4ac1:	48 8d 3d 68 16 00 00 	lea    rdi,[rip+0x1668]        # 6130 <_IO_stdin_used+0x130>
    4ac8:	e8 e3 d8 ff ff       	call   23b0 <_ZSt19__throw_logic_errorPKc@plt>
    4acd:	e8 5e d9 ff ff       	call   2430 <__stack_chk_fail@plt>
    4ad2:	4c 89 ef             	mov    rdi,r13
    4ad5:	eb cd                	jmp    4aa4 <_ZN8BitboardC1ENSt7__cxx1112basic_stringIcSt11char_traitsIcESaIcEEE+0x634>
    4ad7:	f3 0f 1e fa          	endbr64 
    4adb:	48 89 c3             	mov    rbx,rax
    4ade:	e9 ac db ff ff       	jmp    268f <_ZN8BitboardC2ENSt7__cxx1112basic_stringIcSt11char_traitsIcESaIcEEE.cold+0xf>
    4ae3:	f3 0f 1e fa          	endbr64 
    4ae7:	48 89 c3             	mov    rbx,rax
    4aea:	c5 f8 77             	vzeroupper 
    4aed:	e9 b4 db ff ff       	jmp    26a6 <_ZN8BitboardC2ENSt7__cxx1112basic_stringIcSt11char_traitsIcESaIcEEE.cold+0x26>
    4af2:	f3 0f 1e fa          	endbr64 
    4af6:	49 89 c4             	mov    r12,rax
    4af9:	e9 18 dc ff ff       	jmp    2716 <_ZN8BitboardC2ENSt7__cxx1112basic_stringIcSt11char_traitsIcESaIcEEE.cold+0x96>
    4afe:	f3 0f 1e fa          	endbr64 
    4b02:	48 89 c5             	mov    rbp,rax
    4b05:	c5 f8 77             	vzeroupper 
    4b08:	e9 e3 db ff ff       	jmp    26f0 <_ZN8BitboardC2ENSt7__cxx1112basic_stringIcSt11char_traitsIcESaIcEEE.cold+0x70>
    4b0d:	f3 0f 1e fa          	endbr64 
    4b11:	49 89 c4             	mov    r12,rax
    4b14:	c5 f8 77             	vzeroupper 
    4b17:	e9 0c dc ff ff       	jmp    2728 <_ZN8BitboardC2ENSt7__cxx1112basic_stringIcSt11char_traitsIcESaIcEEE.cold+0xa8>
    4b1c:	f3 0f 1e fa          	endbr64 
    4b20:	48 89 c3             	mov    rbx,rax
    4b23:	e9 58 db ff ff       	jmp    2680 <_ZN8BitboardC2ENSt7__cxx1112basic_stringIcSt11char_traitsIcESaIcEEE.cold>
    4b28:	0f 1f 84 00 00 00 00 	nop    DWORD PTR [rax+rax*1+0x0]
    4b2f:	00 

0000000000004b30 <_ZN8Bitboard10unmakeMoveERK4Move>:
    4b30:	f3 0f 1e fa          	endbr64 
    4b34:	41 56                	push   r14
    4b36:	41 55                	push   r13
    4b38:	41 54                	push   r12
    4b3a:	55                   	push   rbp
    4b3b:	48 89 f5             	mov    rbp,rsi
    4b3e:	53                   	push   rbx
    4b3f:	48 89 fb             	mov    rbx,rdi
    4b42:	48 83 ec 50          	sub    rsp,0x50
    4b46:	0f b6 4e 01          	movzx  ecx,BYTE PTR [rsi+0x1]
    4b4a:	0f b6 55 07          	movzx  edx,BYTE PTR [rbp+0x7]
    4b4e:	64 48 8b 04 25 28 00 	mov    rax,QWORD PTR fs:0x28
    4b55:	00 00 
    4b57:	48 89 44 24 48       	mov    QWORD PTR [rsp+0x48],rax
    4b5c:	31 c0                	xor    eax,eax
    4b5e:	0f b6 46 05          	movzx  eax,BYTE PTR [rsi+0x5]
    4b62:	4c 8d 14 d3          	lea    r10,[rbx+rdx*8]
    4b66:	48 8d 3c c7          	lea    rdi,[rdi+rax*8]
    4b6a:	49 89 c1             	mov    r9,rax
    4b6d:	b8 01 00 00 00       	mov    eax,0x1
    4b72:	49 8b 52 10          	mov    rdx,QWORD PTR [r10+0x10]
    4b76:	48 89 c6             	mov    rsi,rax
    4b79:	48 d3 e6             	shl    rsi,cl
    4b7c:	0f b6 4d 00          	movzx  ecx,BYTE PTR [rbp+0x0]
    4b80:	49 89 f0             	mov    r8,rsi
    4b83:	48 d3 e0             	shl    rax,cl
    4b86:	48 8b 0f             	mov    rcx,QWORD PTR [rdi]
    4b89:	49 f7 d0             	not    r8
    4b8c:	4c 21 c2             	and    rdx,r8
    4b8f:	4c 21 c1             	and    rcx,r8
    4b92:	48 09 c2             	or     rdx,rax
    4b95:	48 09 c1             	or     rcx,rax
    4b98:	48 89 0f             	mov    QWORD PTR [rdi],rcx
    4b9b:	49 89 52 10          	mov    QWORD PTR [r10+0x10],rdx
    4b9f:	0f b6 55 08          	movzx  edx,BYTE PTR [rbp+0x8]
    4ba3:	80 fa 06             	cmp    dl,0x6
    4ba6:	74 11                	je     4bb9 <_ZN8Bitboard10unmakeMoveERK4Move+0x89>
    4ba8:	31 c9                	xor    ecx,ecx
    4baa:	45 84 c9             	test   r9b,r9b
    4bad:	0f 94 c1             	sete   cl
    4bb0:	48 09 34 cb          	or     QWORD PTR [rbx+rcx*8],rsi
    4bb4:	48 09 74 d3 10       	or     QWORD PTR [rbx+rdx*8+0x10],rsi
    4bb9:	0f b6 55 03          	movzx  edx,BYTE PTR [rbp+0x3]
    4bbd:	88 53 48             	mov    BYTE PTR [rbx+0x48],dl
    4bc0:	0f b6 4d 09          	movzx  ecx,BYTE PTR [rbp+0x9]
    4bc4:	ba 01 00 00 00       	mov    edx,0x1
    4bc9:	48 d3 e2             	shl    rdx,cl
    4bcc:	84 c9                	test   cl,cl
    4bce:	b9 00 00 00 00       	mov    ecx,0x0
    4bd3:	48 0f 44 d1          	cmove  rdx,rcx
    4bd7:	80 7b 49 00          	cmp    BYTE PTR [rbx+0x49],0x0
    4bdb:	0f 94 43 49          	sete   BYTE PTR [rbx+0x49]
    4bdf:	48 89 53 40          	mov    QWORD PTR [rbx+0x40],rdx
    4be3:	0f b6 55 02          	movzx  edx,BYTE PTR [rbp+0x2]
    4be7:	84 d2                	test   dl,dl
    4be9:	0f 84 e9 00 00 00    	je     4cd8 <_ZN8Bitboard10unmakeMoveERK4Move+0x1a8>
    4bef:	48 0f bc d2          	bsf    rdx,rdx
    4bf3:	48 c7 c1 ff ff ff ff 	mov    rcx,0xffffffffffffffff
    4bfa:	48 0f 44 d1          	cmove  rdx,rcx
    4bfe:	83 fa 05             	cmp    edx,0x5
    4c01:	0f 87 d1 00 00 00    	ja     4cd8 <_ZN8Bitboard10unmakeMoveERK4Move+0x1a8>
    4c07:	48 8d 0d 92 15 00 00 	lea    rcx,[rip+0x1592]        # 61a0 <_IO_stdin_used+0x1a0>
    4c0e:	89 d2                	mov    edx,edx
    4c10:	48 63 14 91          	movsxd rdx,DWORD PTR [rcx+rdx*4]
    4c14:	48 01 ca             	add    rdx,rcx
    4c17:	3e ff e2             	notrack jmp rdx
    4c1a:	66 0f 1f 44 00 00    	nop    WORD PTR [rax+rax*1+0x0]
    4c20:	48 8d 15 da 14 00 00 	lea    rdx,[rip+0x14da]        # 6101 <_IO_stdin_used+0x101>
    4c27:	48 8d 7c 24 20       	lea    rdi,[rsp+0x20]
    4c2c:	48 8d 72 fe          	lea    rsi,[rdx-0x2]
    4c30:	4c 8d 64 24 30       	lea    r12,[rsp+0x30]
    4c35:	4c 89 64 24 20       	mov    QWORD PTR [rsp+0x20],r12
    4c3a:	4c 8d 6c 24 10       	lea    r13,[rsp+0x10]
    4c3f:	e8 dc 0e 00 00       	call   5b20 <_ZNSt7__cxx1112basic_stringIcSt11char_traitsIcESaIcEE12_M_constructIPKcEEvT_S8_St20forward_iterator_tag>
    4c44:	48 8b 44 24 20       	mov    rax,QWORD PTR [rsp+0x20]
    4c49:	48 89 e7             	mov    rdi,rsp
    4c4c:	0f be 50 01          	movsx  edx,BYTE PTR [rax+0x1]
    4c50:	0f be 00             	movsx  eax,BYTE PTR [rax]
    4c53:	4c 89 2c 24          	mov    QWORD PTR [rsp],r13
    4c57:	44 8d b4 d0 17 fe ff 	lea    r14d,[rax+rdx*8-0x1e9]
    4c5e:	ff 
    4c5f:	48 8d 15 9e 14 00 00 	lea    rdx,[rip+0x149e]        # 6104 <_IO_stdin_used+0x104>
    4c66:	48 8d 72 fe          	lea    rsi,[rdx-0x2]
    4c6a:	45 0f b6 f6          	movzx  r14d,r14b
    4c6e:	e8 ad 0e 00 00       	call   5b20 <_ZNSt7__cxx1112basic_stringIcSt11char_traitsIcESaIcEE12_M_constructIPKcEEvT_S8_St20forward_iterator_tag>
    4c73:	0f b6 45 05          	movzx  eax,BYTE PTR [rbp+0x5]
    4c77:	48 8b 3c 24          	mov    rdi,QWORD PTR [rsp]
    4c7b:	48 8b 73 28          	mov    rsi,QWORD PTR [rbx+0x28]
    4c7f:	0f be 57 01          	movsx  edx,BYTE PTR [rdi+0x1]
    4c83:	4c 8d 04 c3          	lea    r8,[rbx+rax*8]
    4c87:	0f be 07             	movsx  eax,BYTE PTR [rdi]
    4c8a:	8d 8c d0 17 fe ff ff 	lea    ecx,[rax+rdx*8-0x1e9]
    4c91:	ba 01 00 00 00       	mov    edx,0x1
    4c96:	48 89 d0             	mov    rax,rdx
    4c99:	48 d3 e0             	shl    rax,cl
    4c9c:	44 89 f1             	mov    ecx,r14d
    4c9f:	48 f7 d0             	not    rax
    4ca2:	48 d3 e2             	shl    rdx,cl
    4ca5:	48 21 c6             	and    rsi,rax
    4ca8:	49 23 00             	and    rax,QWORD PTR [r8]
    4cab:	48 09 d0             	or     rax,rdx
    4cae:	48 09 f2             	or     rdx,rsi
    4cb1:	49 89 00             	mov    QWORD PTR [r8],rax
    4cb4:	48 89 53 28          	mov    QWORD PTR [rbx+0x28],rdx
    4cb8:	4c 39 ef             	cmp    rdi,r13
    4cbb:	74 05                	je     4cc2 <_ZN8Bitboard10unmakeMoveERK4Move+0x192>
    4cbd:	e8 3e d7 ff ff       	call   2400 <_ZdlPv@plt>
    4cc2:	48 8b 7c 24 20       	mov    rdi,QWORD PTR [rsp+0x20]
    4cc7:	4c 39 e7             	cmp    rdi,r12
    4cca:	74 0c                	je     4cd8 <_ZN8Bitboard10unmakeMoveERK4Move+0x1a8>
    4ccc:	e8 2f d7 ff ff       	call   2400 <_ZdlPv@plt>
    4cd1:	0f 1f 80 00 00 00 00 	nop    DWORD PTR [rax+0x0]
    4cd8:	48 8b 44 24 48       	mov    rax,QWORD PTR [rsp+0x48]
    4cdd:	64 48 33 04 25 28 00 	xor    rax,QWORD PTR fs:0x28
    4ce4:	00 00 
    4ce6:	0f 85 84 01 00 00    	jne    4e70 <_ZN8Bitboard10unmakeMoveERK4Move+0x340>
    4cec:	48 83 c4 50          	add    rsp,0x50
    4cf0:	5b                   	pop    rbx
    4cf1:	5d                   	pop    rbp
    4cf2:	41 5c                	pop    r12
    4cf4:	41 5d                	pop    r13
    4cf6:	41 5e                	pop    r14
    4cf8:	c3                   	ret    
    4cf9:	0f 1f 80 00 00 00 00 	nop    DWORD PTR [rax+0x0]
    4d00:	48 8b 17             	mov    rdx,QWORD PTR [rdi]
    4d03:	0f b6 4d 06          	movzx  ecx,BYTE PTR [rbp+0x6]
    4d07:	4c 21 c2             	and    rdx,r8
    4d0a:	4c 21 44 cb 10       	and    QWORD PTR [rbx+rcx*8+0x10],r8
    4d0f:	48 09 c2             	or     rdx,rax
    4d12:	48 89 17             	mov    QWORD PTR [rdi],rdx
    4d15:	48 09 43 10          	or     QWORD PTR [rbx+0x10],rax
    4d19:	eb bd                	jmp    4cd8 <_ZN8Bitboard10unmakeMoveERK4Move+0x1a8>
    4d1b:	0f 1f 44 00 00       	nop    DWORD PTR [rax+rax*1+0x0]
    4d20:	48 8d 15 d4 13 00 00 	lea    rdx,[rip+0x13d4]        # 60fb <_IO_stdin_used+0xfb>
    4d27:	48 8d 7c 24 20       	lea    rdi,[rsp+0x20]
    4d2c:	48 8d 72 fe          	lea    rsi,[rdx-0x2]
    4d30:	4c 8d 64 24 30       	lea    r12,[rsp+0x30]
    4d35:	4c 89 64 24 20       	mov    QWORD PTR [rsp+0x20],r12
    4d3a:	4c 8d 6c 24 10       	lea    r13,[rsp+0x10]
    4d3f:	e8 dc 0d 00 00       	call   5b20 <_ZNSt7__cxx1112basic_stringIcSt11char_traitsIcESaIcEE12_M_constructIPKcEEvT_S8_St20forward_iterator_tag>
    4d44:	48 8b 44 24 20       	mov    rax,QWORD PTR [rsp+0x20]
    4d49:	48 89 e7             	mov    rdi,rsp
    4d4c:	0f be 50 01          	movsx  edx,BYTE PTR [rax+0x1]
    4d50:	0f be 00             	movsx  eax,BYTE PTR [rax]
    4d53:	4c 89 2c 24          	mov    QWORD PTR [rsp],r13
    4d57:	44 8d b4 d0 17 fe ff 	lea    r14d,[rax+rdx*8-0x1e9]
    4d5e:	ff 
    4d5f:	48 8d 15 98 13 00 00 	lea    rdx,[rip+0x1398]        # 60fe <_IO_stdin_used+0xfe>
    4d66:	48 8d 72 fe          	lea    rsi,[rdx-0x2]
    4d6a:	45 0f b6 f6          	movzx  r14d,r14b
    4d6e:	e8 ad 0d 00 00       	call   5b20 <_ZNSt7__cxx1112basic_stringIcSt11char_traitsIcESaIcEE12_M_constructIPKcEEvT_S8_St20forward_iterator_tag>
    4d73:	e9 fb fe ff ff       	jmp    4c73 <_ZN8Bitboard10unmakeMoveERK4Move+0x143>
    4d78:	0f 1f 84 00 00 00 00 	nop    DWORD PTR [rax+rax*1+0x0]
    4d7f:	00 
    4d80:	48 8d 15 6e 13 00 00 	lea    rdx,[rip+0x136e]        # 60f5 <_IO_stdin_used+0xf5>
    4d87:	48 8d 7c 24 20       	lea    rdi,[rsp+0x20]
    4d8c:	48 8d 72 fe          	lea    rsi,[rdx-0x2]
    4d90:	4c 8d 64 24 30       	lea    r12,[rsp+0x30]
    4d95:	4c 89 64 24 20       	mov    QWORD PTR [rsp+0x20],r12
    4d9a:	4c 8d 6c 24 10       	lea    r13,[rsp+0x10]
    4d9f:	e8 7c 0d 00 00       	call   5b20 <_ZNSt7__cxx1112basic_stringIcSt11char_traitsIcESaIcEE12_M_constructIPKcEEvT_S8_St20forward_iterator_tag>
    4da4:	48 8b 44 24 20       	mov    rax,QWORD PTR [rsp+0x20]
    4da9:	48 89 e7             	mov    rdi,rsp
    4dac:	0f be 50 01          	movsx  edx,BYTE PTR [rax+0x1]
    4db0:	0f be 00             	movsx  eax,BYTE PTR [rax]
    4db3:	4c 89 2c 24          	mov    QWORD PTR [rsp],r13
    4db7:	44 8d b4 d0 17 fe ff 	lea    r14d,[rax+rdx*8-0x1e9]
    4dbe:	ff 
    4dbf:	48 8d 15 32 13 00 00 	lea    rdx,[rip+0x1332]        # 60f8 <_IO_stdin_used+0xf8>
    4dc6:	48 8d 72 fe          	lea    rsi,[rdx-0x2]
    4dca:	45 0f b6 f6          	movzx  r14d,r14b
    4dce:	e8 4d 0d 00 00       	call   5b20 <_ZNSt7__cxx1112basic_stringIcSt11char_traitsIcESaIcEE12_M_constructIPKcEEvT_S8_St20forward_iterator_tag>
    4dd3:	e9 9b fe ff ff       	jmp    4c73 <_ZN8Bitboard10unmakeMoveERK4Move+0x143>
    4dd8:	0f 1f 84 00 00 00 00 	nop    DWORD PTR [rax+rax*1+0x0]
    4ddf:	00 
    4de0:	48 8d 15 08 13 00 00 	lea    rdx,[rip+0x1308]        # 60ef <_IO_stdin_used+0xef>
    4de7:	48 8d 7c 24 20       	lea    rdi,[rsp+0x20]
    4dec:	48 8d 72 fe          	lea    rsi,[rdx-0x2]
    4df0:	4c 8d 64 24 30       	lea    r12,[rsp+0x30]
    4df5:	4c 89 64 24 20       	mov    QWORD PTR [rsp+0x20],r12
    4dfa:	4c 8d 6c 24 10       	lea    r13,[rsp+0x10]
    4dff:	e8 1c 0d 00 00       	call   5b20 <_ZNSt7__cxx1112basic_stringIcSt11char_traitsIcESaIcEE12_M_constructIPKcEEvT_S8_St20forward_iterator_tag>
    4e04:	48 8b 44 24 20       	mov    rax,QWORD PTR [rsp+0x20]
    4e09:	48 89 e7             	mov    rdi,rsp
    4e0c:	0f be 50 01          	movsx  edx,BYTE PTR [rax+0x1]
    4e10:	0f be 00             	movsx  eax,BYTE PTR [rax]
    4e13:	4c 89 2c 24          	mov    QWORD PTR [rsp],r13
    4e17:	44 8d b4 d0 17 fe ff 	lea    r14d,[rax+rdx*8-0x1e9]
    4e1e:	ff 
    4e1f:	48 8d 15 cc 12 00 00 	lea    rdx,[rip+0x12cc]        # 60f2 <_IO_stdin_used+0xf2>
    4e26:	48 8d 72 fe          	lea    rsi,[rdx-0x2]
    4e2a:	45 0f b6 f6          	movzx  r14d,r14b
    4e2e:	e8 ed 0c 00 00       	call   5b20 <_ZNSt7__cxx1112basic_stringIcSt11char_traitsIcESaIcEE12_M_constructIPKcEEvT_S8_St20forward_iterator_tag>
    4e33:	e9 3b fe ff ff       	jmp    4c73 <_ZN8Bitboard10unmakeMoveERK4Move+0x143>
    4e38:	0f 1f 84 00 00 00 00 	nop    DWORD PTR [rax+rax*1+0x0]
    4e3f:	00 
    4e40:	48 c1 ee 08          	shr    rsi,0x8
    4e44:	48 c7 c0 ff ff ff ff 	mov    rax,0xffffffffffffffff
    4e4b:	48 0f bc ce          	bsf    rcx,rsi
    4e4f:	48 0f 44 c8          	cmove  rcx,rax
    4e53:	31 d2                	xor    edx,edx
    4e55:	45 84 c9             	test   r9b,r9b
    4e58:	b8 01 00 00 00       	mov    eax,0x1
    4e5d:	0f 94 c2             	sete   dl
    4e60:	48 d3 e0             	shl    rax,cl
    4e63:	48 09 04 d3          	or     QWORD PTR [rbx+rdx*8],rax
    4e67:	48 09 43 10          	or     QWORD PTR [rbx+0x10],rax
    4e6b:	e9 68 fe ff ff       	jmp    4cd8 <_ZN8Bitboard10unmakeMoveERK4Move+0x1a8>
    4e70:	e8 bb d5 ff ff       	call   2430 <__stack_chk_fail@plt>
    4e75:	f3 0f 1e fa          	endbr64 
    4e79:	48 89 c5             	mov    rbp,rax
    4e7c:	e9 cd d8 ff ff       	jmp    274e <_ZN8Bitboard10unmakeMoveERK4Move.cold>
    4e81:	f3 0f 1e fa          	endbr64 
    4e85:	48 89 c5             	mov    rbp,rax
    4e88:	e9 db d8 ff ff       	jmp    2768 <_ZN8Bitboard10unmakeMoveERK4Move.cold+0x1a>
    4e8d:	f3 0f 1e fa          	endbr64 
    4e91:	48 89 c5             	mov    rbp,rax
    4e94:	e9 ee d8 ff ff       	jmp    2787 <_ZN8Bitboard10unmakeMoveERK4Move.cold+0x39>
    4e99:	f3 0f 1e fa          	endbr64 
    4e9d:	48 89 c5             	mov    rbp,rax
    4ea0:	e9 fc d8 ff ff       	jmp    27a1 <_ZN8Bitboard10unmakeMoveERK4Move.cold+0x53>
    4ea5:	90                   	nop
    4ea6:	66 2e 0f 1f 84 00 00 	nop    WORD PTR cs:[rax+rax*1+0x0]
    4ead:	00 00 00 

0000000000004eb0 <_ZN8Bitboard8makeMoveERK4Move>:
    4eb0:	f3 0f 1e fa          	endbr64 
    4eb4:	41 56                	push   r14
    4eb6:	41 55                	push   r13
    4eb8:	41 54                	push   r12
    4eba:	55                   	push   rbp
    4ebb:	48 89 f5             	mov    rbp,rsi
    4ebe:	53                   	push   rbx
    4ebf:	48 89 fb             	mov    rbx,rdi
    4ec2:	48 83 ec 50          	sub    rsp,0x50
    4ec6:	0f b6 4e 01          	movzx  ecx,BYTE PTR [rsi+0x1]
    4eca:	0f b6 7e 05          	movzx  edi,BYTE PTR [rsi+0x5]
    4ece:	64 48 8b 04 25 28 00 	mov    rax,QWORD PTR fs:0x28
    4ed5:	00 00 
    4ed7:	48 89 44 24 48       	mov    QWORD PTR [rsp+0x48],rax
    4edc:	31 c0                	xor    eax,eax
    4ede:	0f b6 46 08          	movzx  eax,BYTE PTR [rsi+0x8]
    4ee2:	be 01 00 00 00       	mov    esi,0x1
    4ee7:	48 d3 e6             	shl    rsi,cl
    4eea:	3c 06                	cmp    al,0x6
    4eec:	74 17                	je     4f05 <_ZN8Bitboard8makeMoveERK4Move+0x55>
    4eee:	31 c9                	xor    ecx,ecx
    4ef0:	40 84 ff             	test   dil,dil
    4ef3:	48 89 f2             	mov    rdx,rsi
    4ef6:	0f 94 c1             	sete   cl
    4ef9:	48 f7 d2             	not    rdx
    4efc:	48 21 14 cb          	and    QWORD PTR [rbx+rcx*8],rdx
    4f00:	48 21 54 c3 10       	and    QWORD PTR [rbx+rax*8+0x10],rdx
    4f05:	0f b6 4d 00          	movzx  ecx,BYTE PTR [rbp+0x0]
    4f09:	40 0f b6 c7          	movzx  eax,dil
    4f0d:	ba 01 00 00 00       	mov    edx,0x1
    4f12:	4c 8d 0c c3          	lea    r9,[rbx+rax*8]
    4f16:	48 89 d0             	mov    rax,rdx
    4f19:	48 d3 e0             	shl    rax,cl
    4f1c:	0f b6 4d 07          	movzx  ecx,BYTE PTR [rbp+0x7]
    4f20:	48 f7 d0             	not    rax
    4f23:	4c 8d 04 cb          	lea    r8,[rbx+rcx*8]
    4f27:	49 8b 48 10          	mov    rcx,QWORD PTR [r8+0x10]
    4f2b:	48 21 c1             	and    rcx,rax
    4f2e:	49 23 01             	and    rax,QWORD PTR [r9]
    4f31:	48 09 f0             	or     rax,rsi
    4f34:	49 89 01             	mov    QWORD PTR [r9],rax
    4f37:	48 89 c8             	mov    rax,rcx
    4f3a:	48 09 f0             	or     rax,rsi
    4f3d:	49 89 40 10          	mov    QWORD PTR [r8+0x10],rax
    4f41:	80 7b 49 00          	cmp    BYTE PTR [rbx+0x49],0x0
    4f45:	0f 94 43 49          	sete   BYTE PTR [rbx+0x49]
    4f49:	0f b6 45 04          	movzx  eax,BYTE PTR [rbp+0x4]
    4f4d:	88 43 48             	mov    BYTE PTR [rbx+0x48],al
    4f50:	0f b6 4d 0a          	movzx  ecx,BYTE PTR [rbp+0xa]
    4f54:	b8 00 00 00 00       	mov    eax,0x0
    4f59:	48 d3 e2             	shl    rdx,cl
    4f5c:	84 c9                	test   cl,cl
    4f5e:	48 0f 44 d0          	cmove  rdx,rax
    4f62:	48 89 53 40          	mov    QWORD PTR [rbx+0x40],rdx
    4f66:	0f b6 45 02          	movzx  eax,BYTE PTR [rbp+0x2]
    4f6a:	84 c0                	test   al,al
    4f6c:	0f 84 e6 00 00 00    	je     5058 <_ZN8Bitboard8makeMoveERK4Move+0x1a8>
    4f72:	48 0f bc c0          	bsf    rax,rax
    4f76:	48 c7 c2 ff ff ff ff 	mov    rdx,0xffffffffffffffff
    4f7d:	48 0f 44 c2          	cmove  rax,rdx
    4f81:	83 f8 05             	cmp    eax,0x5
    4f84:	0f 87 ce 00 00 00    	ja     5058 <_ZN8Bitboard8makeMoveERK4Move+0x1a8>
    4f8a:	48 8d 15 27 12 00 00 	lea    rdx,[rip+0x1227]        # 61b8 <_IO_stdin_used+0x1b8>
    4f91:	89 c0                	mov    eax,eax
    4f93:	48 63 04 82          	movsxd rax,DWORD PTR [rdx+rax*4]
    4f97:	48 01 d0             	add    rax,rdx
    4f9a:	3e ff e0             	notrack jmp rax
    4f9d:	0f 1f 00             	nop    DWORD PTR [rax]
    4fa0:	48 8d 15 5d 11 00 00 	lea    rdx,[rip+0x115d]        # 6104 <_IO_stdin_used+0x104>
    4fa7:	48 8d 7c 24 20       	lea    rdi,[rsp+0x20]
    4fac:	48 8d 72 fe          	lea    rsi,[rdx-0x2]
    4fb0:	4c 8d 64 24 30       	lea    r12,[rsp+0x30]
    4fb5:	4c 89 64 24 20       	mov    QWORD PTR [rsp+0x20],r12
    4fba:	4c 8d 6c 24 10       	lea    r13,[rsp+0x10]
    4fbf:	e8 5c 0b 00 00       	call   5b20 <_ZNSt7__cxx1112basic_stringIcSt11char_traitsIcESaIcEE12_M_constructIPKcEEvT_S8_St20forward_iterator_tag>
    4fc4:	48 8b 44 24 20       	mov    rax,QWORD PTR [rsp+0x20]
    4fc9:	48 89 e7             	mov    rdi,rsp
    4fcc:	0f be 50 01          	movsx  edx,BYTE PTR [rax+0x1]
    4fd0:	0f be 00             	movsx  eax,BYTE PTR [rax]
    4fd3:	4c 89 2c 24          	mov    QWORD PTR [rsp],r13
    4fd7:	44 8d b4 d0 17 fe ff 	lea    r14d,[rax+rdx*8-0x1e9]
    4fde:	ff 
    4fdf:	48 8d 15 1b 11 00 00 	lea    rdx,[rip+0x111b]        # 6101 <_IO_stdin_used+0x101>
    4fe6:	48 8d 72 fe          	lea    rsi,[rdx-0x2]
    4fea:	45 0f b6 f6          	movzx  r14d,r14b
    4fee:	e8 2d 0b 00 00       	call   5b20 <_ZNSt7__cxx1112basic_stringIcSt11char_traitsIcESaIcEE12_M_constructIPKcEEvT_S8_St20forward_iterator_tag>
    4ff3:	0f b6 45 05          	movzx  eax,BYTE PTR [rbp+0x5]
    4ff7:	48 8b 3c 24          	mov    rdi,QWORD PTR [rsp]
    4ffb:	48 8b 73 28          	mov    rsi,QWORD PTR [rbx+0x28]
    4fff:	0f be 57 01          	movsx  edx,BYTE PTR [rdi+0x1]
    5003:	4c 8d 04 c3          	lea    r8,[rbx+rax*8]
    5007:	0f be 07             	movsx  eax,BYTE PTR [rdi]
    500a:	8d 8c d0 17 fe ff ff 	lea    ecx,[rax+rdx*8-0x1e9]
    5011:	ba 01 00 00 00       	mov    edx,0x1
    5016:	48 89 d0             	mov    rax,rdx
    5019:	48 d3 e0             	shl    rax,cl
    501c:	44 89 f1             	mov    ecx,r14d
    501f:	48 f7 d0             	not    rax
    5022:	48 d3 e2             	shl    rdx,cl
    5025:	48 21 c6             	and    rsi,rax
    5028:	49 23 00             	and    rax,QWORD PTR [r8]
    502b:	48 09 d0             	or     rax,rdx
    502e:	48 09 f2             	or     rdx,rsi
    5031:	49 89 00             	mov    QWORD PTR [r8],rax
    5034:	48 89 53 28          	mov    QWORD PTR [rbx+0x28],rdx
    5038:	4c 39 ef             	cmp    rdi,r13
    503b:	74 05                	je     5042 <_ZN8Bitboard8makeMoveERK4Move+0x192>
    503d:	e8 be d3 ff ff       	call   2400 <_ZdlPv@plt>
    5042:	48 8b 7c 24 20       	mov    rdi,QWORD PTR [rsp+0x20]
    5047:	4c 39 e7             	cmp    rdi,r12
    504a:	74 0c                	je     5058 <_ZN8Bitboard8makeMoveERK4Move+0x1a8>
    504c:	e8 af d3 ff ff       	call   2400 <_ZdlPv@plt>
    5051:	0f 1f 80 00 00 00 00 	nop    DWORD PTR [rax+0x0]
    5058:	48 8b 44 24 48       	mov    rax,QWORD PTR [rsp+0x48]
    505d:	64 48 33 04 25 28 00 	xor    rax,QWORD PTR fs:0x28
    5064:	00 00 
    5066:	0f 85 76 01 00 00    	jne    51e2 <_ZN8Bitboard8makeMoveERK4Move+0x332>
    506c:	48 83 c4 50          	add    rsp,0x50
    5070:	5b                   	pop    rbx
    5071:	5d                   	pop    rbp
    5072:	41 5c                	pop    r12
    5074:	41 5d                	pop    r13
    5076:	41 5e                	pop    r14
    5078:	c3                   	ret    
    5079:	0f 1f 80 00 00 00 00 	nop    DWORD PTR [rax+0x0]
    5080:	48 89 f0             	mov    rax,rsi
    5083:	48 f7 d0             	not    rax
    5086:	48 21 43 10          	and    QWORD PTR [rbx+0x10],rax
    508a:	0f b6 45 06          	movzx  eax,BYTE PTR [rbp+0x6]
    508e:	48 09 74 c3 10       	or     QWORD PTR [rbx+rax*8+0x10],rsi
    5093:	eb c3                	jmp    5058 <_ZN8Bitboard8makeMoveERK4Move+0x1a8>
    5095:	0f 1f 00             	nop    DWORD PTR [rax]
    5098:	48 8d 15 5f 10 00 00 	lea    rdx,[rip+0x105f]        # 60fe <_IO_stdin_used+0xfe>
    509f:	48 8d 7c 24 20       	lea    rdi,[rsp+0x20]
    50a4:	48 8d 72 fe          	lea    rsi,[rdx-0x2]
    50a8:	4c 8d 64 24 30       	lea    r12,[rsp+0x30]
    50ad:	4c 89 64 24 20       	mov    QWORD PTR [rsp+0x20],r12
    50b2:	4c 8d 6c 24 10       	lea    r13,[rsp+0x10]
    50b7:	e8 64 0a 00 00       	call   5b20 <_ZNSt7__cxx1112basic_stringIcSt11char_traitsIcESaIcEE12_M_constructIPKcEEvT_S8_St20forward_iterator_tag>
    50bc:	48 8b 44 24 20       	mov    rax,QWORD PTR [rsp+0x20]
    50c1:	48 89 e7             	mov    rdi,rsp
    50c4:	0f be 50 01          	movsx  edx,BYTE PTR [rax+0x1]
    50c8:	0f be 00             	movsx  eax,BYTE PTR [rax]
    50cb:	4c 89 2c 24          	mov    QWORD PTR [rsp],r13
    50cf:	44 8d b4 d0 17 fe ff 	lea    r14d,[rax+rdx*8-0x1e9]
    50d6:	ff 
    50d7:	48 8d 15 1d 10 00 00 	lea    rdx,[rip+0x101d]        # 60fb <_IO_stdin_used+0xfb>
    50de:	48 8d 72 fe          	lea    rsi,[rdx-0x2]
    50e2:	45 0f b6 f6          	movzx  r14d,r14b
    50e6:	e8 35 0a 00 00       	call   5b20 <_ZNSt7__cxx1112basic_stringIcSt11char_traitsIcESaIcEE12_M_constructIPKcEEvT_S8_St20forward_iterator_tag>
    50eb:	e9 03 ff ff ff       	jmp    4ff3 <_ZN8Bitboard8makeMoveERK4Move+0x143>
    50f0:	48 8d 15 01 10 00 00 	lea    rdx,[rip+0x1001]        # 60f8 <_IO_stdin_used+0xf8>
    50f7:	48 8d 7c 24 20       	lea    rdi,[rsp+0x20]
    50fc:	48 8d 72 fe          	lea    rsi,[rdx-0x2]
    5100:	4c 8d 64 24 30       	lea    r12,[rsp+0x30]
    5105:	4c 89 64 24 20       	mov    QWORD PTR [rsp+0x20],r12
    510a:	4c 8d 6c 24 10       	lea    r13,[rsp+0x10]
    510f:	e8 0c 0a 00 00       	call   5b20 <_ZNSt7__cxx1112basic_stringIcSt11char_traitsIcESaIcEE12_M_constructIPKcEEvT_S8_St20forward_iterator_tag>
    5114:	48 8b 44 24 20       	mov    rax,QWORD PTR [rsp+0x20]
    5119:	48 89 e7             	mov    rdi,rsp
    511c:	0f be 50 01          	movsx  edx,BYTE PTR [rax+0x1]
    5120:	0f be 00             	movsx  eax,BYTE PTR [rax]
    5123:	4c 89 2c 24          	mov    QWORD PTR [rsp],r13
    5127:	44 8d b4 d0 17 fe ff 	lea    r14d,[rax+rdx*8-0x1e9]
    512e:	ff 
    512f:	48 8d 15 bf 0f 00 00 	lea    rdx,[rip+0xfbf]        # 60f5 <_IO_stdin_used+0xf5>
    5136:	48 8d 72 fe          	lea    rsi,[rdx-0x2]
    513a:	45 0f b6 f6          	movzx  r14d,r14b
    513e:	e8 dd 09 00 00       	call   5b20 <_ZNSt7__cxx1112basic_stringIcSt11char_traitsIcESaIcEE12_M_constructIPKcEEvT_S8_St20forward_iterator_tag>
    5143:	e9 ab fe ff ff       	jmp    4ff3 <_ZN8Bitboard8makeMoveERK4Move+0x143>
    5148:	0f 1f 84 00 00 00 00 	nop    DWORD PTR [rax+rax*1+0x0]
    514f:	00 
    5150:	48 8d 15 9b 0f 00 00 	lea    rdx,[rip+0xf9b]        # 60f2 <_IO_stdin_used+0xf2>
    5157:	48 8d 7c 24 20       	lea    rdi,[rsp+0x20]
    515c:	48 8d 72 fe          	lea    rsi,[rdx-0x2]
    5160:	4c 8d 64 24 30       	lea    r12,[rsp+0x30]
    5165:	4c 89 64 24 20       	mov    QWORD PTR [rsp+0x20],r12
    516a:	4c 8d 6c 24 10       	lea    r13,[rsp+0x10]
    516f:	e8 ac 09 00 00       	call   5b20 <_ZNSt7__cxx1112basic_stringIcSt11char_traitsIcESaIcEE12_M_constructIPKcEEvT_S8_St20forward_iterator_tag>
    5174:	48 8b 44 24 20       	mov    rax,QWORD PTR [rsp+0x20]
    5179:	48 89 e7             	mov    rdi,rsp
    517c:	0f be 50 01          	movsx  edx,BYTE PTR [rax+0x1]
    5180:	0f be 00             	movsx  eax,BYTE PTR [rax]
    5183:	4c 89 2c 24          	mov    QWORD PTR [rsp],r13
    5187:	44 8d b4 d0 17 fe ff 	lea    r14d,[rax+rdx*8-0x1e9]
    518e:	ff 
    518f:	48 8d 15 59 0f 00 00 	lea    rdx,[rip+0xf59]        # 60ef <_IO_stdin_used+0xef>
    5196:	48 8d 72 fe          	lea    rsi,[rdx-0x2]
    519a:	45 0f b6 f6          	movzx  r14d,r14b
    519e:	e8 7d 09 00 00       	call   5b20 <_ZNSt7__cxx1112basic_stringIcSt11char_traitsIcESaIcEE12_M_constructIPKcEEvT_S8_St20forward_iterator_tag>
    51a3:	e9 4b fe ff ff       	jmp    4ff3 <_ZN8Bitboard8makeMoveERK4Move+0x143>
    51a8:	0f 1f 84 00 00 00 00 	nop    DWORD PTR [rax+rax*1+0x0]
    51af:	00 
    51b0:	48 c1 ee 08          	shr    rsi,0x8
    51b4:	48 c7 c0 ff ff ff ff 	mov    rax,0xffffffffffffffff
    51bb:	48 0f bc ce          	bsf    rcx,rsi
    51bf:	48 0f 44 c8          	cmove  rcx,rax
    51c3:	31 d2                	xor    edx,edx
    51c5:	40 84 ff             	test   dil,dil
    51c8:	48 c7 c0 fe ff ff ff 	mov    rax,0xfffffffffffffffe
    51cf:	0f 94 c2             	sete   dl
    51d2:	48 d3 c0             	rol    rax,cl
    51d5:	48 21 04 d3          	and    QWORD PTR [rbx+rdx*8],rax
    51d9:	48 21 43 10          	and    QWORD PTR [rbx+0x10],rax
    51dd:	e9 76 fe ff ff       	jmp    5058 <_ZN8Bitboard8makeMoveERK4Move+0x1a8>
    51e2:	e8 49 d2 ff ff       	call   2430 <__stack_chk_fail@plt>
    51e7:	f3 0f 1e fa          	endbr64 
    51eb:	48 89 c5             	mov    rbp,rax
    51ee:	e9 d7 d5 ff ff       	jmp    27ca <_ZN8Bitboard8makeMoveERK4Move.cold>
    51f3:	f3 0f 1e fa          	endbr64 
    51f7:	48 89 c5             	mov    rbp,rax
    51fa:	e9 e5 d5 ff ff       	jmp    27e4 <_ZN8Bitboard8makeMoveERK4Move.cold+0x1a>
    51ff:	f3 0f 1e fa          	endbr64 
    5203:	48 89 c5             	mov    rbp,rax
    5206:	e9 f8 d5 ff ff       	jmp    2803 <_ZN8Bitboard8makeMoveERK4Move.cold+0x39>
    520b:	f3 0f 1e fa          	endbr64 
    520f:	48 89 c5             	mov    rbp,rax
    5212:	e9 06 d6 ff ff       	jmp    281d <_ZN8Bitboard8makeMoveERK4Move.cold+0x53>
    5217:	90                   	nop
    5218:	0f 1f 84 00 00 00 00 	nop    DWORD PTR [rax+rax*1+0x0]
    521f:	00 

0000000000005220 <_ZN8Bitboard10checkLegalE4Move>:
    5220:	f3 0f 1e fa          	endbr64 
    5224:	41 55                	push   r13
    5226:	41 54                	push   r12
    5228:	55                   	push   rbp
    5229:	48 89 fd             	mov    rbp,rdi
    522c:	53                   	push   rbx
    522d:	48 83 ec 18          	sub    rsp,0x18
    5231:	49 89 e4             	mov    r12,rsp
    5234:	48 89 34 24          	mov    QWORD PTR [rsp],rsi
    5238:	66 89 54 24 08       	mov    WORD PTR [rsp+0x8],dx
    523d:	4c 89 e6             	mov    rsi,r12
    5240:	48 c1 ea 10          	shr    rdx,0x10
    5244:	88 54 24 0a          	mov    BYTE PTR [rsp+0xa],dl
    5248:	e8 63 fc ff ff       	call   4eb0 <_ZN8Bitboard8makeMoveERK4Move>
    524d:	0f b6 5d 49          	movzx  ebx,BYTE PTR [rbp+0x49]
    5251:	31 f6                	xor    esi,esi
    5253:	48 89 ef             	mov    rdi,rbp
    5256:	84 db                	test   bl,bl
    5258:	40 0f 94 c6          	sete   sil
    525c:	e8 0f e5 ff ff       	call   3770 <_ZN8Bitboard13getAllAttacksEh>
    5261:	4c 89 e6             	mov    rsi,r12
    5264:	49 89 c0             	mov    r8,rax
    5267:	48 8b 44 dd 00       	mov    rax,QWORD PTR [rbp+rbx*8+0x0]
    526c:	48 23 45 38          	and    rax,QWORD PTR [rbp+0x38]
    5270:	4c 85 c0             	test   rax,r8
    5273:	41 0f 94 c5          	sete   r13b
    5277:	e8 b4 f8 ff ff       	call   4b30 <_ZN8Bitboard10unmakeMoveERK4Move>
    527c:	48 83 c4 18          	add    rsp,0x18
    5280:	44 89 e8             	mov    eax,r13d
    5283:	5b                   	pop    rbx
    5284:	5d                   	pop    rbp
    5285:	41 5c                	pop    r12
    5287:	41 5d                	pop    r13
    5289:	c3                   	ret    
    528a:	66 0f 1f 44 00 00    	nop    WORD PTR [rax+rax*1+0x0]

0000000000005290 <_ZN8Bitboard18generatePawnPushesERSt6vectorI4MoveSaIS1_EE>:
    5290:	f3 0f 1e fa          	endbr64 
    5294:	41 56                	push   r14
    5296:	41 55                	push   r13
    5298:	41 54                	push   r12
    529a:	49 89 fc             	mov    r12,rdi
    529d:	55                   	push   rbp
    529e:	53                   	push   rbx
    529f:	48 89 f3             	mov    rbx,rsi
    52a2:	48 83 ec 20          	sub    rsp,0x20
    52a6:	0f b6 77 49          	movzx  esi,BYTE PTR [rdi+0x49]
    52aa:	48 8b 0f             	mov    rcx,QWORD PTR [rdi]
    52ad:	64 48 8b 04 25 28 00 	mov    rax,QWORD PTR fs:0x28
    52b4:	00 00 
    52b6:	48 89 44 24 18       	mov    QWORD PTR [rsp+0x18],rax
    52bb:	31 c0                	xor    eax,eax
    52bd:	48 8b 47 10          	mov    rax,QWORD PTR [rdi+0x10]
    52c1:	40 84 f6             	test   sil,sil
    52c4:	0f 85 7e 02 00 00    	jne    5548 <_ZN8Bitboard18generatePawnPushesERSt6vectorI4MoveSaIS1_EE+0x2b8>
    52ca:	48 bd ff ff ff ff ff 	movabs rbp,0xffffffffffffff
    52d1:	ff ff 00 
    52d4:	4c 8b 6f 08          	mov    r13,QWORD PTR [rdi+0x8]
    52d8:	49 09 cd             	or     r13,rcx
    52db:	48 21 c1             	and    rcx,rax
    52de:	49 f7 d5             	not    r13
    52e1:	48 c1 e1 08          	shl    rcx,0x8
    52e5:	4c 21 e9             	and    rcx,r13
    52e8:	48 21 cd             	and    rbp,rcx
    52eb:	0f 84 9c 02 00 00    	je     558d <_ZN8Bitboard18generatePawnPushesERSt6vectorI4MoveSaIS1_EE+0x2fd>
    52f1:	49 c7 c5 ff ff ff ff 	mov    r13,0xffffffffffffffff
    52f8:	eb 22                	jmp    531c <_ZN8Bitboard18generatePawnPushesERSt6vectorI4MoveSaIS1_EE+0x8c>
    52fa:	66 0f 1f 44 00 00    	nop    WORD PTR [rax+rax*1+0x0]
    5300:	48 c7 c0 fe ff ff ff 	mov    rax,0xfffffffffffffffe
    5307:	44 89 f1             	mov    ecx,r14d
    530a:	41 0f b6 74 24 49    	movzx  esi,BYTE PTR [r12+0x49]
    5310:	48 d3 c0             	rol    rax,cl
    5313:	48 21 c5             	and    rbp,rax
    5316:	0f 84 f4 00 00 00    	je     5410 <_ZN8Bitboard18generatePawnPushesERSt6vectorI4MoveSaIS1_EE+0x180>
    531c:	48 0f bc c5          	bsf    rax,rbp
    5320:	41 0f b6 4c 24 48    	movzx  ecx,BYTE PTR [r12+0x48]
    5326:	40 88 74 24 12       	mov    BYTE PTR [rsp+0x12],sil
    532b:	48 8d 3d 0e 3d 00 00 	lea    rdi,[rip+0x3d0e]        # 9040 <_ZSt4cout@@GLIBCXX_3.4>
    5332:	49 0f 44 c5          	cmove  rax,r13
    5336:	c6 44 24 0f 00       	mov    BYTE PTR [rsp+0xf],0x0
    533b:	88 4c 24 10          	mov    BYTE PTR [rsp+0x10],cl
    533f:	48 83 c0 01          	add    rax,0x1
    5343:	88 4c 24 11          	mov    BYTE PTR [rsp+0x11],cl
    5347:	8d 50 f7             	lea    edx,[rax-0x9]
    534a:	44 8d 70 ff          	lea    r14d,[rax-0x1]
    534e:	83 c0 07             	add    eax,0x7
    5351:	40 84 f6             	test   sil,sil
    5354:	0f 44 c2             	cmove  eax,edx
    5357:	49 0f bc 54 24 40    	bsf    rdx,QWORD PTR [r12+0x40]
    535d:	48 8d 35 a1 0d 00 00 	lea    rsi,[rip+0xda1]        # 6105 <_IO_stdin_used+0x105>
    5364:	44 88 74 24 0e       	mov    BYTE PTR [rsp+0xe],r14b
    5369:	88 44 24 0d          	mov    BYTE PTR [rsp+0xd],al
    536d:	c6 44 24 15 06       	mov    BYTE PTR [rsp+0x15],0x6
    5372:	49 0f 44 d5          	cmove  rdx,r13
    5376:	31 c9                	xor    ecx,ecx
    5378:	66 89 4c 24 13       	mov    WORD PTR [rsp+0x13],cx
    537d:	88 54 24 16          	mov    BYTE PTR [rsp+0x16],dl
    5381:	88 54 24 17          	mov    BYTE PTR [rsp+0x17],dl
    5385:	ba 03 00 00 00       	mov    edx,0x3
    538a:	e8 b1 d0 ff ff       	call   2440 <_ZSt16__ostream_insertIcSt11char_traitsIcEERSt13basic_ostreamIT_T0_ES6_PKS3_l@plt>
    538f:	0f b6 54 24 16       	movzx  edx,BYTE PTR [rsp+0x16]
    5394:	0f b6 44 24 15       	movzx  eax,BYTE PTR [rsp+0x15]
    5399:	4c 89 e7             	mov    rdi,r12
    539c:	48 8b 74 24 0d       	mov    rsi,QWORD PTR [rsp+0xd]
    53a1:	48 c1 e2 08          	shl    rdx,0x8
    53a5:	48 09 d0             	or     rax,rdx
    53a8:	0f b6 54 24 17       	movzx  edx,BYTE PTR [rsp+0x17]
    53ad:	48 c1 e2 10          	shl    rdx,0x10
    53b1:	48 09 c2             	or     rdx,rax
    53b4:	e8 67 fe ff ff       	call   5220 <_ZN8Bitboard10checkLegalE4Move>
    53b9:	84 c0                	test   al,al
    53bb:	0f 84 3f ff ff ff    	je     5300 <_ZN8Bitboard18generatePawnPushesERSt6vectorI4MoveSaIS1_EE+0x70>
    53c1:	48 8b 73 08          	mov    rsi,QWORD PTR [rbx+0x8]
    53c5:	48 3b 73 10          	cmp    rsi,QWORD PTR [rbx+0x10]
    53c9:	0f 84 01 02 00 00    	je     55d0 <_ZN8Bitboard18generatePawnPushesERSt6vectorI4MoveSaIS1_EE+0x340>
    53cf:	48 8b 44 24 0d       	mov    rax,QWORD PTR [rsp+0xd]
    53d4:	48 83 c6 0b          	add    rsi,0xb
    53d8:	48 89 46 f5          	mov    QWORD PTR [rsi-0xb],rax
    53dc:	0f b7 44 24 15       	movzx  eax,WORD PTR [rsp+0x15]
    53e1:	66 89 46 fd          	mov    WORD PTR [rsi-0x3],ax
    53e5:	0f b6 44 24 17       	movzx  eax,BYTE PTR [rsp+0x17]
    53ea:	88 46 ff             	mov    BYTE PTR [rsi-0x1],al
    53ed:	48 89 73 08          	mov    QWORD PTR [rbx+0x8],rsi
    53f1:	ba 05 00 00 00       	mov    edx,0x5
    53f6:	48 8d 35 0c 0d 00 00 	lea    rsi,[rip+0xd0c]        # 6109 <_IO_stdin_used+0x109>
    53fd:	48 8d 3d 3c 3c 00 00 	lea    rdi,[rip+0x3c3c]        # 9040 <_ZSt4cout@@GLIBCXX_3.4>
    5404:	e8 37 d0 ff ff       	call   2440 <_ZSt16__ostream_insertIcSt11char_traitsIcEERSt13basic_ostreamIT_T0_ES6_PKS3_l@plt>
    5409:	e9 f2 fe ff ff       	jmp    5300 <_ZN8Bitboard18generatePawnPushesERSt6vectorI4MoveSaIS1_EE+0x70>
    540e:	66 90                	xchg   ax,ax
    5410:	49 8b 0c 24          	mov    rcx,QWORD PTR [r12]
    5414:	49 8b 44 24 10       	mov    rax,QWORD PTR [r12+0x10]
    5419:	40 84 f6             	test   sil,sil
    541c:	0f 84 56 01 00 00    	je     5578 <_ZN8Bitboard18generatePawnPushesERSt6vectorI4MoveSaIS1_EE+0x2e8>
    5422:	40 0f b6 d6          	movzx  edx,sil
    5426:	49 8b 14 d4          	mov    rdx,QWORD PTR [r12+rdx*8]
    542a:	48 09 d1             	or     rcx,rdx
    542d:	48 21 d0             	and    rax,rdx
    5430:	48 f7 d1             	not    rcx
    5433:	48 c1 e8 08          	shr    rax,0x8
    5437:	48 21 c8             	and    rax,rcx
    543a:	48 c1 e8 08          	shr    rax,0x8
    543e:	48 c7 c5 ff ff ff ff 	mov    rbp,0xffffffffffffffff
    5445:	49 89 c5             	mov    r13,rax
    5448:	48 b8 00 00 00 00 ff 	movabs rax,0xff00000000
    544f:	00 00 00 
    5452:	49 21 cd             	and    r13,rcx
    5455:	49 21 c5             	and    r13,rax
    5458:	4d 85 ed             	test   r13,r13
    545b:	75 27                	jne    5484 <_ZN8Bitboard18generatePawnPushesERSt6vectorI4MoveSaIS1_EE+0x1f4>
    545d:	e9 4e 01 00 00       	jmp    55b0 <_ZN8Bitboard18generatePawnPushesERSt6vectorI4MoveSaIS1_EE+0x320>
    5462:	66 0f 1f 44 00 00    	nop    WORD PTR [rax+rax*1+0x0]
    5468:	48 c7 c0 fe ff ff ff 	mov    rax,0xfffffffffffffffe
    546f:	44 89 f1             	mov    ecx,r14d
    5472:	48 d3 c0             	rol    rax,cl
    5475:	49 21 c5             	and    r13,rax
    5478:	0f 84 32 01 00 00    	je     55b0 <_ZN8Bitboard18generatePawnPushesERSt6vectorI4MoveSaIS1_EE+0x320>
    547e:	41 0f b6 74 24 49    	movzx  esi,BYTE PTR [r12+0x49]
    5484:	49 0f bc c5          	bsf    rax,r13
    5488:	41 0f b6 4c 24 48    	movzx  ecx,BYTE PTR [r12+0x48]
    548e:	c6 44 24 0f 00       	mov    BYTE PTR [rsp+0xf],0x0
    5493:	4c 89 e7             	mov    rdi,r12
    5496:	48 0f 44 c5          	cmove  rax,rbp
    549a:	40 88 74 24 12       	mov    BYTE PTR [rsp+0x12],sil
    549f:	88 4c 24 10          	mov    BYTE PTR [rsp+0x10],cl
    54a3:	48 83 c0 01          	add    rax,0x1
    54a7:	88 4c 24 11          	mov    BYTE PTR [rsp+0x11],cl
    54ab:	44 8d 70 ff          	lea    r14d,[rax-0x1]
    54af:	8d 50 ef             	lea    edx,[rax-0x11]
    54b2:	83 c0 0f             	add    eax,0xf
    54b5:	40 84 f6             	test   sil,sil
    54b8:	0f 45 d0             	cmovne edx,eax
    54bb:	49 0f bc 44 24 40    	bsf    rax,QWORD PTR [r12+0x40]
    54c1:	44 88 74 24 0e       	mov    BYTE PTR [rsp+0xe],r14b
    54c6:	88 54 24 0d          	mov    BYTE PTR [rsp+0xd],dl
    54ca:	c6 44 24 15 06       	mov    BYTE PTR [rsp+0x15],0x6
    54cf:	48 0f 44 c5          	cmove  rax,rbp
    54d3:	31 d2                	xor    edx,edx
    54d5:	66 89 54 24 13       	mov    WORD PTR [rsp+0x13],dx
    54da:	48 8b 74 24 0d       	mov    rsi,QWORD PTR [rsp+0xd]
    54df:	0f b6 d0             	movzx  edx,al
    54e2:	88 44 24 16          	mov    BYTE PTR [rsp+0x16],al
    54e6:	48 c1 e2 08          	shl    rdx,0x8
    54ea:	88 44 24 17          	mov    BYTE PTR [rsp+0x17],al
    54ee:	48 89 d1             	mov    rcx,rdx
    54f1:	0f b6 d0             	movzx  edx,al
    54f4:	48 83 c9 06          	or     rcx,0x6
    54f8:	48 c1 e2 10          	shl    rdx,0x10
    54fc:	48 09 ca             	or     rdx,rcx
    54ff:	e8 1c fd ff ff       	call   5220 <_ZN8Bitboard10checkLegalE4Move>
    5504:	84 c0                	test   al,al
    5506:	0f 84 5c ff ff ff    	je     5468 <_ZN8Bitboard18generatePawnPushesERSt6vectorI4MoveSaIS1_EE+0x1d8>
    550c:	48 8b 73 08          	mov    rsi,QWORD PTR [rbx+0x8]
    5510:	48 3b 73 10          	cmp    rsi,QWORD PTR [rbx+0x10]
    5514:	0f 84 ce 00 00 00    	je     55e8 <_ZN8Bitboard18generatePawnPushesERSt6vectorI4MoveSaIS1_EE+0x358>
    551a:	48 8b 44 24 0d       	mov    rax,QWORD PTR [rsp+0xd]
    551f:	48 83 c6 0b          	add    rsi,0xb
    5523:	48 89 46 f5          	mov    QWORD PTR [rsi-0xb],rax
    5527:	0f b7 44 24 15       	movzx  eax,WORD PTR [rsp+0x15]
    552c:	66 89 46 fd          	mov    WORD PTR [rsi-0x3],ax
    5530:	0f b6 44 24 17       	movzx  eax,BYTE PTR [rsp+0x17]
    5535:	88 46 ff             	mov    BYTE PTR [rsi-0x1],al
    5538:	48 89 73 08          	mov    QWORD PTR [rbx+0x8],rsi
    553c:	e9 27 ff ff ff       	jmp    5468 <_ZN8Bitboard18generatePawnPushesERSt6vectorI4MoveSaIS1_EE+0x1d8>
    5541:	0f 1f 80 00 00 00 00 	nop    DWORD PTR [rax+0x0]
    5548:	40 0f b6 d6          	movzx  edx,sil
    554c:	48 8b 14 d7          	mov    rdx,QWORD PTR [rdi+rdx*8]
    5550:	48 09 d1             	or     rcx,rdx
    5553:	48 21 d0             	and    rax,rdx
    5556:	48 f7 d1             	not    rcx
    5559:	48 c1 e8 08          	shr    rax,0x8
    555d:	48 21 c8             	and    rax,rcx
    5560:	48 89 c5             	mov    rbp,rax
    5563:	48 81 e5 00 ff ff ff 	and    rbp,0xffffffffffffff00
    556a:	0f 85 81 fd ff ff    	jne    52f1 <_ZN8Bitboard18generatePawnPushesERSt6vectorI4MoveSaIS1_EE+0x61>
    5570:	e9 c5 fe ff ff       	jmp    543a <_ZN8Bitboard18generatePawnPushesERSt6vectorI4MoveSaIS1_EE+0x1aa>
    5575:	0f 1f 00             	nop    DWORD PTR [rax]
    5578:	4d 8b 6c 24 08       	mov    r13,QWORD PTR [r12+0x8]
    557d:	49 09 cd             	or     r13,rcx
    5580:	48 21 c1             	and    rcx,rax
    5583:	49 f7 d5             	not    r13
    5586:	48 c1 e1 08          	shl    rcx,0x8
    558a:	4c 21 e9             	and    rcx,r13
    558d:	48 c1 e1 08          	shl    rcx,0x8
    5591:	48 c7 c5 ff ff ff ff 	mov    rbp,0xffffffffffffffff
    5598:	49 21 cd             	and    r13,rcx
    559b:	41 81 e5 00 00 00 ff 	and    r13d,0xff000000
    55a2:	4d 85 ed             	test   r13,r13
    55a5:	0f 85 d9 fe ff ff    	jne    5484 <_ZN8Bitboard18generatePawnPushesERSt6vectorI4MoveSaIS1_EE+0x1f4>
    55ab:	0f 1f 44 00 00       	nop    DWORD PTR [rax+rax*1+0x0]
    55b0:	48 8b 44 24 18       	mov    rax,QWORD PTR [rsp+0x18]
    55b5:	64 48 33 04 25 28 00 	xor    rax,QWORD PTR fs:0x28
    55bc:	00 00 
    55be:	75 3a                	jne    55fa <_ZN8Bitboard18generatePawnPushesERSt6vectorI4MoveSaIS1_EE+0x36a>
    55c0:	48 83 c4 20          	add    rsp,0x20
    55c4:	5b                   	pop    rbx
    55c5:	5d                   	pop    rbp
    55c6:	41 5c                	pop    r12
    55c8:	41 5d                	pop    r13
    55ca:	41 5e                	pop    r14
    55cc:	c3                   	ret    
    55cd:	0f 1f 00             	nop    DWORD PTR [rax]
    55d0:	48 8d 54 24 0d       	lea    rdx,[rsp+0xd]
    55d5:	48 89 df             	mov    rdi,rbx
    55d8:	e8 93 03 00 00       	call   5970 <_ZNSt6vectorI4MoveSaIS0_EE17_M_realloc_insertIJRKS0_EEEvN9__gnu_cxx17__normal_iteratorIPS0_S2_EEDpOT_>
    55dd:	e9 0f fe ff ff       	jmp    53f1 <_ZN8Bitboard18generatePawnPushesERSt6vectorI4MoveSaIS1_EE+0x161>
    55e2:	66 0f 1f 44 00 00    	nop    WORD PTR [rax+rax*1+0x0]
    55e8:	48 8d 54 24 0d       	lea    rdx,[rsp+0xd]
    55ed:	48 89 df             	mov    rdi,rbx
    55f0:	e8 7b 03 00 00       	call   5970 <_ZNSt6vectorI4MoveSaIS0_EE17_M_realloc_insertIJRKS0_EEEvN9__gnu_cxx17__normal_iteratorIPS0_S2_EEDpOT_>
    55f5:	e9 6e fe ff ff       	jmp    5468 <_ZN8Bitboard18generatePawnPushesERSt6vectorI4MoveSaIS1_EE+0x1d8>
    55fa:	e8 31 ce ff ff       	call   2430 <__stack_chk_fail@plt>
    55ff:	90                   	nop

0000000000005600 <_ZN8Bitboard19generateKnightMovesERSt6vectorI4MoveSaIS1_EE>:
    5600:	f3 0f 1e fa          	endbr64 
    5604:	41 57                	push   r15
    5606:	41 56                	push   r14
    5608:	41 55                	push   r13
    560a:	49 89 f5             	mov    r13,rsi
    560d:	41 54                	push   r12
    560f:	55                   	push   rbp
    5610:	53                   	push   rbx
    5611:	48 83 ec 48          	sub    rsp,0x48
    5615:	64 48 8b 04 25 28 00 	mov    rax,QWORD PTR fs:0x28
    561c:	00 00 
    561e:	48 89 44 24 38       	mov    QWORD PTR [rsp+0x38],rax
    5623:	31 c0                	xor    eax,eax
    5625:	0f b6 47 49          	movzx  eax,BYTE PTR [rdi+0x49]
    5629:	48 8b 1c c7          	mov    rbx,QWORD PTR [rdi+rax*8]
    562d:	48 89 c6             	mov    rsi,rax
    5630:	48 89 d8             	mov    rax,rbx
    5633:	48 23 47 18          	and    rax,QWORD PTR [rdi+0x18]
    5637:	48 89 44 24 18       	mov    QWORD PTR [rsp+0x18],rax
    563c:	0f 84 96 02 00 00    	je     58d8 <_ZN8Bitboard19generateKnightMovesERSt6vectorI4MoveSaIS1_EE+0x2d8>
    5642:	49 89 fe             	mov    r14,rdi
    5645:	bd 01 00 00 00       	mov    ebp,0x1
    564a:	66 0f 1f 44 00 00    	nop    WORD PTR [rax+rax*1+0x0]
    5650:	48 0f bc 44 24 18    	bsf    rax,QWORD PTR [rsp+0x18]
    5656:	48 c7 c2 ff ff ff ff 	mov    rdx,0xffffffffffffffff
    565d:	48 f7 d3             	not    rbx
    5660:	49 c7 c4 ff ff ff ff 	mov    r12,0xffffffffffffffff
    5667:	48 8d 0d 12 4d 00 00 	lea    rcx,[rip+0x4d12]        # a380 <_ZN9constants13knightAttacksE>
    566e:	48 0f 44 c2          	cmove  rax,rdx
    5672:	48 89 c7             	mov    rdi,rax
    5675:	89 44 24 14          	mov    DWORD PTR [rsp+0x14],eax
    5679:	48 98                	cdqe   
    567b:	48 23 1c c1          	and    rbx,QWORD PTR [rcx+rax*8]
    567f:	31 c0                	xor    eax,eax
    5681:	40 84 f6             	test   sil,sil
    5684:	40 88 7c 24 13       	mov    BYTE PTR [rsp+0x13],dil
    5689:	0f 94 c0             	sete   al
    568c:	4d 8b 3c c6          	mov    r15,QWORD PTR [r14+rax*8]
    5690:	49 21 df             	and    r15,rbx
    5693:	4c 89 f8             	mov    rax,r15
    5696:	48 f7 d0             	not    rax
    5699:	48 21 c3             	and    rbx,rax
    569c:	4d 85 ff             	test   r15,r15
    569f:	75 26                	jne    56c7 <_ZN8Bitboard19generateKnightMovesERSt6vectorI4MoveSaIS1_EE+0xc7>
    56a1:	e9 e5 00 00 00       	jmp    578b <_ZN8Bitboard19generateKnightMovesERSt6vectorI4MoveSaIS1_EE+0x18b>
    56a6:	66 2e 0f 1f 84 00 00 	nop    WORD PTR cs:[rax+rax*1+0x0]
    56ad:	00 00 00 
    56b0:	48 89 e8             	mov    rax,rbp
    56b3:	48 d3 e0             	shl    rax,cl
    56b6:	48 f7 d0             	not    rax
    56b9:	49 21 c7             	and    r15,rax
    56bc:	0f 84 c9 00 00 00    	je     578b <_ZN8Bitboard19generateKnightMovesERSt6vectorI4MoveSaIS1_EE+0x18b>
    56c2:	41 0f b6 76 49       	movzx  esi,BYTE PTR [r14+0x49]
    56c7:	49 0f bc cf          	bsf    rcx,r15
    56cb:	41 0f b6 56 48       	movzx  edx,BYTE PTR [r14+0x48]
    56d0:	40 88 74 24 32       	mov    BYTE PTR [rsp+0x32],sil
    56d5:	49 0f 44 cc          	cmove  rcx,r12
    56d9:	49 0f bc 46 40       	bsf    rax,QWORD PTR [r14+0x40]
    56de:	0f b6 7c 24 13       	movzx  edi,BYTE PTR [rsp+0x13]
    56e3:	88 54 24 30          	mov    BYTE PTR [rsp+0x30],dl
    56e7:	88 54 24 31          	mov    BYTE PTR [rsp+0x31],dl
    56eb:	88 4c 24 2e          	mov    BYTE PTR [rsp+0x2e],cl
    56ef:	49 0f 44 c4          	cmove  rax,r12
    56f3:	89 4c 24 0c          	mov    DWORD PTR [rsp+0xc],ecx
    56f7:	b9 00 01 00 00       	mov    ecx,0x100
    56fc:	40 88 7c 24 2d       	mov    BYTE PTR [rsp+0x2d],dil
    5701:	4c 89 f7             	mov    rdi,r14
    5704:	0f b6 d0             	movzx  edx,al
    5707:	66 89 4c 24 33       	mov    WORD PTR [rsp+0x33],cx
    570c:	48 c1 e2 08          	shl    rdx,0x8
    5710:	c6 44 24 2f 00       	mov    BYTE PTR [rsp+0x2f],0x0
    5715:	48 89 d6             	mov    rsi,rdx
    5718:	0f b6 d0             	movzx  edx,al
    571b:	c6 44 24 35 05       	mov    BYTE PTR [rsp+0x35],0x5
    5720:	48 83 ce 05          	or     rsi,0x5
    5724:	48 c1 e2 10          	shl    rdx,0x10
    5728:	88 44 24 36          	mov    BYTE PTR [rsp+0x36],al
    572c:	48 09 f2             	or     rdx,rsi
    572f:	48 8b 74 24 2d       	mov    rsi,QWORD PTR [rsp+0x2d]
    5734:	88 44 24 37          	mov    BYTE PTR [rsp+0x37],al
    5738:	e8 e3 fa ff ff       	call   5220 <_ZN8Bitboard10checkLegalE4Move>
    573d:	8b 4c 24 0c          	mov    ecx,DWORD PTR [rsp+0xc]
    5741:	84 c0                	test   al,al
    5743:	0f 84 67 ff ff ff    	je     56b0 <_ZN8Bitboard19generateKnightMovesERSt6vectorI4MoveSaIS1_EE+0xb0>
    5749:	49 8b 75 08          	mov    rsi,QWORD PTR [r13+0x8]
    574d:	49 3b 75 10          	cmp    rsi,QWORD PTR [r13+0x10]
    5751:	0f 84 61 01 00 00    	je     58b8 <_ZN8Bitboard19generateKnightMovesERSt6vectorI4MoveSaIS1_EE+0x2b8>
    5757:	48 8b 44 24 2d       	mov    rax,QWORD PTR [rsp+0x2d]
    575c:	48 83 c6 0b          	add    rsi,0xb
    5760:	48 89 46 f5          	mov    QWORD PTR [rsi-0xb],rax
    5764:	0f b7 44 24 35       	movzx  eax,WORD PTR [rsp+0x35]
    5769:	66 89 46 fd          	mov    WORD PTR [rsi-0x3],ax
    576d:	0f b6 44 24 37       	movzx  eax,BYTE PTR [rsp+0x37]
    5772:	88 46 ff             	mov    BYTE PTR [rsi-0x1],al
    5775:	48 89 e8             	mov    rax,rbp
    5778:	48 d3 e0             	shl    rax,cl
    577b:	49 89 75 08          	mov    QWORD PTR [r13+0x8],rsi
    577f:	48 f7 d0             	not    rax
    5782:	49 21 c7             	and    r15,rax
    5785:	0f 85 37 ff ff ff    	jne    56c2 <_ZN8Bitboard19generateKnightMovesERSt6vectorI4MoveSaIS1_EE+0xc2>
    578b:	0f b6 44 24 14       	movzx  eax,BYTE PTR [rsp+0x14]
    5790:	49 c7 c4 ff ff ff ff 	mov    r12,0xffffffffffffffff
    5797:	88 44 24 0c          	mov    BYTE PTR [rsp+0xc],al
    579b:	48 85 db             	test   rbx,rbx
    579e:	75 1d                	jne    57bd <_ZN8Bitboard19generateKnightMovesERSt6vectorI4MoveSaIS1_EE+0x1bd>
    57a0:	e9 cb 00 00 00       	jmp    5870 <_ZN8Bitboard19generateKnightMovesERSt6vectorI4MoveSaIS1_EE+0x270>
    57a5:	0f 1f 00             	nop    DWORD PTR [rax]
    57a8:	48 89 e8             	mov    rax,rbp
    57ab:	44 89 f9             	mov    ecx,r15d
    57ae:	48 d3 e0             	shl    rax,cl
    57b1:	48 f7 d0             	not    rax
    57b4:	48 21 c3             	and    rbx,rax
    57b7:	0f 84 b3 00 00 00    	je     5870 <_ZN8Bitboard19generateKnightMovesERSt6vectorI4MoveSaIS1_EE+0x270>
    57bd:	48 0f bc cb          	bsf    rcx,rbx
    57c1:	41 0f b7 56 48       	movzx  edx,WORD PTR [r14+0x48]
    57c6:	41 0f b6 76 48       	movzx  esi,BYTE PTR [r14+0x48]
    57cb:	c6 44 24 2f 00       	mov    BYTE PTR [rsp+0x2f],0x0
    57d0:	49 0f 44 cc          	cmove  rcx,r12
    57d4:	49 0f bc 46 40       	bsf    rax,QWORD PTR [r14+0x40]
    57d9:	0f b6 7c 24 0c       	movzx  edi,BYTE PTR [rsp+0xc]
    57de:	66 89 54 24 31       	mov    WORD PTR [rsp+0x31],dx
    57e3:	ba 00 01 00 00       	mov    edx,0x100
    57e8:	66 89 54 24 33       	mov    WORD PTR [rsp+0x33],dx
    57ed:	49 89 cf             	mov    r15,rcx
    57f0:	40 88 74 24 30       	mov    BYTE PTR [rsp+0x30],sil
    57f5:	49 0f 44 c4          	cmove  rax,r12
    57f9:	40 88 7c 24 2d       	mov    BYTE PTR [rsp+0x2d],dil
    57fe:	4c 89 f7             	mov    rdi,r14
    5801:	88 4c 24 2e          	mov    BYTE PTR [rsp+0x2e],cl
    5805:	0f b6 d0             	movzx  edx,al
    5808:	c6 44 24 35 06       	mov    BYTE PTR [rsp+0x35],0x6
    580d:	48 c1 e2 08          	shl    rdx,0x8
    5811:	88 44 24 36          	mov    BYTE PTR [rsp+0x36],al
    5815:	48 89 d6             	mov    rsi,rdx
    5818:	0f b6 d0             	movzx  edx,al
    581b:	88 44 24 37          	mov    BYTE PTR [rsp+0x37],al
    581f:	48 83 ce 06          	or     rsi,0x6
    5823:	48 c1 e2 10          	shl    rdx,0x10
    5827:	48 09 f2             	or     rdx,rsi
    582a:	48 8b 74 24 2d       	mov    rsi,QWORD PTR [rsp+0x2d]
    582f:	e8 ec f9 ff ff       	call   5220 <_ZN8Bitboard10checkLegalE4Move>
    5834:	84 c0                	test   al,al
    5836:	0f 84 6c ff ff ff    	je     57a8 <_ZN8Bitboard19generateKnightMovesERSt6vectorI4MoveSaIS1_EE+0x1a8>
    583c:	49 8b 75 08          	mov    rsi,QWORD PTR [r13+0x8]
    5840:	49 3b 75 10          	cmp    rsi,QWORD PTR [r13+0x10]
    5844:	74 5a                	je     58a0 <_ZN8Bitboard19generateKnightMovesERSt6vectorI4MoveSaIS1_EE+0x2a0>
    5846:	48 8b 44 24 2d       	mov    rax,QWORD PTR [rsp+0x2d]
    584b:	48 83 c6 0b          	add    rsi,0xb
    584f:	48 89 46 f5          	mov    QWORD PTR [rsi-0xb],rax
    5853:	0f b7 44 24 35       	movzx  eax,WORD PTR [rsp+0x35]
    5858:	66 89 46 fd          	mov    WORD PTR [rsi-0x3],ax
    585c:	0f b6 44 24 37       	movzx  eax,BYTE PTR [rsp+0x37]
    5861:	88 46 ff             	mov    BYTE PTR [rsi-0x1],al
    5864:	49 89 75 08          	mov    QWORD PTR [r13+0x8],rsi
    5868:	e9 3b ff ff ff       	jmp    57a8 <_ZN8Bitboard19generateKnightMovesERSt6vectorI4MoveSaIS1_EE+0x1a8>
    586d:	0f 1f 00             	nop    DWORD PTR [rax]
    5870:	0f b6 4c 24 14       	movzx  ecx,BYTE PTR [rsp+0x14]
    5875:	48 89 e8             	mov    rax,rbp
    5878:	48 d3 e0             	shl    rax,cl
    587b:	48 f7 d0             	not    rax
    587e:	48 21 44 24 18       	and    QWORD PTR [rsp+0x18],rax
    5883:	74 53                	je     58d8 <_ZN8Bitboard19generateKnightMovesERSt6vectorI4MoveSaIS1_EE+0x2d8>
    5885:	41 0f b6 46 49       	movzx  eax,BYTE PTR [r14+0x49]
    588a:	49 8b 1c c6          	mov    rbx,QWORD PTR [r14+rax*8]
    588e:	48 89 c6             	mov    rsi,rax
    5891:	e9 ba fd ff ff       	jmp    5650 <_ZN8Bitboard19generateKnightMovesERSt6vectorI4MoveSaIS1_EE+0x50>
    5896:	66 2e 0f 1f 84 00 00 	nop    WORD PTR cs:[rax+rax*1+0x0]
    589d:	00 00 00 
    58a0:	48 8d 54 24 2d       	lea    rdx,[rsp+0x2d]
    58a5:	4c 89 ef             	mov    rdi,r13
    58a8:	e8 c3 00 00 00       	call   5970 <_ZNSt6vectorI4MoveSaIS0_EE17_M_realloc_insertIJRKS0_EEEvN9__gnu_cxx17__normal_iteratorIPS0_S2_EEDpOT_>
    58ad:	e9 f6 fe ff ff       	jmp    57a8 <_ZN8Bitboard19generateKnightMovesERSt6vectorI4MoveSaIS1_EE+0x1a8>
    58b2:	66 0f 1f 44 00 00    	nop    WORD PTR [rax+rax*1+0x0]
    58b8:	48 8d 54 24 2d       	lea    rdx,[rsp+0x2d]
    58bd:	4c 89 ef             	mov    rdi,r13
    58c0:	89 4c 24 0c          	mov    DWORD PTR [rsp+0xc],ecx
    58c4:	e8 a7 00 00 00       	call   5970 <_ZNSt6vectorI4MoveSaIS0_EE17_M_realloc_insertIJRKS0_EEEvN9__gnu_cxx17__normal_iteratorIPS0_S2_EEDpOT_>
    58c9:	8b 4c 24 0c          	mov    ecx,DWORD PTR [rsp+0xc]
    58cd:	e9 de fd ff ff       	jmp    56b0 <_ZN8Bitboard19generateKnightMovesERSt6vectorI4MoveSaIS1_EE+0xb0>
    58d2:	66 0f 1f 44 00 00    	nop    WORD PTR [rax+rax*1+0x0]
    58d8:	48 8b 44 24 38       	mov    rax,QWORD PTR [rsp+0x38]
    58dd:	64 48 33 04 25 28 00 	xor    rax,QWORD PTR fs:0x28
    58e4:	00 00 
    58e6:	75 0f                	jne    58f7 <_ZN8Bitboard19generateKnightMovesERSt6vectorI4MoveSaIS1_EE+0x2f7>
    58e8:	48 83 c4 48          	add    rsp,0x48
    58ec:	5b                   	pop    rbx
    58ed:	5d                   	pop    rbp
    58ee:	41 5c                	pop    r12
    58f0:	41 5d                	pop    r13
    58f2:	41 5e                	pop    r14
    58f4:	41 5f                	pop    r15
    58f6:	c3                   	ret    
    58f7:	e8 34 cb ff ff       	call   2430 <__stack_chk_fail@plt>
    58fc:	0f 1f 40 00          	nop    DWORD PTR [rax+0x0]

0000000000005900 <_ZN8Bitboard13generateMovesEv>:
    5900:	f3 0f 1e fa          	endbr64 
    5904:	41 54                	push   r12
    5906:	49 89 fc             	mov    r12,rdi
    5909:	55                   	push   rbp
    590a:	48 89 f5             	mov    rbp,rsi
    590d:	48 89 fe             	mov    rsi,rdi
    5910:	48 83 ec 08          	sub    rsp,0x8
    5914:	48 c7 07 00 00 00 00 	mov    QWORD PTR [rdi],0x0
    591b:	48 c7 47 08 00 00 00 	mov    QWORD PTR [rdi+0x8],0x0
    5922:	00 
    5923:	48 c7 47 10 00 00 00 	mov    QWORD PTR [rdi+0x10],0x0
    592a:	00 
    592b:	48 89 ef             	mov    rdi,rbp
    592e:	e8 5d f9 ff ff       	call   5290 <_ZN8Bitboard18generatePawnPushesERSt6vectorI4MoveSaIS1_EE>
    5933:	4c 89 e6             	mov    rsi,r12
    5936:	48 89 ef             	mov    rdi,rbp
    5939:	e8 c2 fc ff ff       	call   5600 <_ZN8Bitboard19generateKnightMovesERSt6vectorI4MoveSaIS1_EE>
    593e:	48 83 c4 08          	add    rsp,0x8
    5942:	4c 89 e0             	mov    rax,r12
    5945:	5d                   	pop    rbp
    5946:	41 5c                	pop    r12
    5948:	c3                   	ret    
    5949:	f3 0f 1e fa          	endbr64 
    594d:	48 89 c5             	mov    rbp,rax
    5950:	e9 f1 ce ff ff       	jmp    2846 <_ZN8Bitboard13generateMovesEv.cold>
    5955:	66 2e 0f 1f 84 00 00 	nop    WORD PTR cs:[rax+rax*1+0x0]
    595c:	00 00 00 
    595f:	90                   	nop

0000000000005960 <_ZNKSt5ctypeIcE8do_widenEc>:
    5960:	f3 0f 1e fa          	endbr64 
    5964:	89 f0                	mov    eax,esi
    5966:	c3                   	ret    
    5967:	66 0f 1f 84 00 00 00 	nop    WORD PTR [rax+rax*1+0x0]
    596e:	00 00 

0000000000005970 <_ZNSt6vectorI4MoveSaIS0_EE17_M_realloc_insertIJRKS0_EEEvN9__gnu_cxx17__normal_iteratorIPS0_S2_EEDpOT_>:
    5970:	f3 0f 1e fa          	endbr64 
    5974:	48 b9 a3 8b 2e ba e8 	movabs rcx,0x2e8ba2e8ba2e8ba3
    597b:	a2 8b 2e 
    597e:	41 57                	push   r15
    5980:	41 56                	push   r14
    5982:	49 89 fe             	mov    r14,rdi
    5985:	41 55                	push   r13
    5987:	41 54                	push   r12
    5989:	55                   	push   rbp
    598a:	48 89 f5             	mov    rbp,rsi
    598d:	53                   	push   rbx
    598e:	48 83 ec 28          	sub    rsp,0x28
    5992:	48 8b 77 08          	mov    rsi,QWORD PTR [rdi+0x8]
    5996:	4c 8b 27             	mov    r12,QWORD PTR [rdi]
    5999:	48 bf e8 a2 8b 2e ba 	movabs rdi,0xba2e8ba2e8ba2e8
    59a0:	e8 a2 0b 
    59a3:	48 89 f0             	mov    rax,rsi
    59a6:	4c 29 e0             	sub    rax,r12
    59a9:	48 0f af c1          	imul   rax,rcx
    59ad:	48 39 f8             	cmp    rax,rdi
    59b0:	0f 84 5d 01 00 00    	je     5b13 <_ZNSt6vectorI4MoveSaIS0_EE17_M_realloc_insertIJRKS0_EEEvN9__gnu_cxx17__normal_iteratorIPS0_S2_EEDpOT_+0x1a3>
    59b6:	48 89 e9             	mov    rcx,rbp
    59b9:	4c 29 e1             	sub    rcx,r12
    59bc:	48 85 c0             	test   rax,rax
    59bf:	0f 84 23 01 00 00    	je     5ae8 <_ZNSt6vectorI4MoveSaIS0_EE17_M_realloc_insertIJRKS0_EEEvN9__gnu_cxx17__normal_iteratorIPS0_S2_EEDpOT_+0x178>
    59c5:	49 bf f8 ff ff ff ff 	movabs r15,0x7ffffffffffffff8
    59cc:	ff ff 7f 
    59cf:	4c 8d 04 00          	lea    r8,[rax+rax*1]
    59d3:	4c 39 c0             	cmp    rax,r8
    59d6:	0f 86 f4 00 00 00    	jbe    5ad0 <_ZNSt6vectorI4MoveSaIS0_EE17_M_realloc_insertIJRKS0_EEEvN9__gnu_cxx17__normal_iteratorIPS0_S2_EEDpOT_+0x160>
    59dc:	4c 89 ff             	mov    rdi,r15
    59df:	48 89 54 24 18       	mov    QWORD PTR [rsp+0x18],rdx
    59e4:	48 89 4c 24 10       	mov    QWORD PTR [rsp+0x10],rcx
    59e9:	48 89 74 24 08       	mov    QWORD PTR [rsp+0x8],rsi
    59ee:	e8 1d ca ff ff       	call   2410 <_Znwm@plt>
    59f3:	48 8b 74 24 08       	mov    rsi,QWORD PTR [rsp+0x8]
    59f8:	48 8b 4c 24 10       	mov    rcx,QWORD PTR [rsp+0x10]
    59fd:	48 8b 54 24 18       	mov    rdx,QWORD PTR [rsp+0x18]
    5a02:	48 89 c3             	mov    rbx,rax
    5a05:	49 01 c7             	add    r15,rax
    5a08:	4c 8d 68 0b          	lea    r13,[rax+0xb]
    5a0c:	48 8b 02             	mov    rax,QWORD PTR [rdx]
    5a0f:	48 89 04 0b          	mov    QWORD PTR [rbx+rcx*1],rax
    5a13:	0f b7 42 08          	movzx  eax,WORD PTR [rdx+0x8]
    5a17:	66 89 44 0b 08       	mov    WORD PTR [rbx+rcx*1+0x8],ax
    5a1c:	0f b6 42 0a          	movzx  eax,BYTE PTR [rdx+0xa]
    5a20:	88 44 0b 0a          	mov    BYTE PTR [rbx+rcx*1+0xa],al
    5a24:	4c 39 e5             	cmp    rbp,r12
    5a27:	0f 84 cb 00 00 00    	je     5af8 <_ZNSt6vectorI4MoveSaIS0_EE17_M_realloc_insertIJRKS0_EEEvN9__gnu_cxx17__normal_iteratorIPS0_S2_EEDpOT_+0x188>
    5a2d:	48 89 e9             	mov    rcx,rbp
    5a30:	31 d2                	xor    edx,edx
    5a32:	4c 29 e1             	sub    rcx,r12
    5a35:	0f 1f 00             	nop    DWORD PTR [rax]
    5a38:	49 8b 04 14          	mov    rax,QWORD PTR [r12+rdx*1]
    5a3c:	48 89 04 13          	mov    QWORD PTR [rbx+rdx*1],rax
    5a40:	41 0f b7 44 14 08    	movzx  eax,WORD PTR [r12+rdx*1+0x8]
    5a46:	66 89 44 13 08       	mov    WORD PTR [rbx+rdx*1+0x8],ax
    5a4b:	41 0f b6 44 14 0a    	movzx  eax,BYTE PTR [r12+rdx*1+0xa]
    5a51:	88 44 13 0a          	mov    BYTE PTR [rbx+rdx*1+0xa],al
    5a55:	48 83 c2 0b          	add    rdx,0xb
    5a59:	48 39 d1             	cmp    rcx,rdx
    5a5c:	75 da                	jne    5a38 <_ZNSt6vectorI4MoveSaIS0_EE17_M_realloc_insertIJRKS0_EEEvN9__gnu_cxx17__normal_iteratorIPS0_S2_EEDpOT_+0xc8>
    5a5e:	4c 8d 6c 0b 0b       	lea    r13,[rbx+rcx*1+0xb]
    5a63:	48 39 f5             	cmp    rbp,rsi
    5a66:	74 58                	je     5ac0 <_ZNSt6vectorI4MoveSaIS0_EE17_M_realloc_insertIJRKS0_EEEvN9__gnu_cxx17__normal_iteratorIPS0_S2_EEDpOT_+0x150>
    5a68:	48 29 ee             	sub    rsi,rbp
    5a6b:	31 d2                	xor    edx,edx
    5a6d:	48 89 f1             	mov    rcx,rsi
    5a70:	48 8b 44 15 00       	mov    rax,QWORD PTR [rbp+rdx*1+0x0]
    5a75:	49 89 44 15 00       	mov    QWORD PTR [r13+rdx*1+0x0],rax
    5a7a:	0f b7 44 15 08       	movzx  eax,WORD PTR [rbp+rdx*1+0x8]
    5a7f:	66 41 89 44 15 08    	mov    WORD PTR [r13+rdx*1+0x8],ax
    5a85:	0f b6 44 15 0a       	movzx  eax,BYTE PTR [rbp+rdx*1+0xa]
    5a8a:	41 88 44 15 0a       	mov    BYTE PTR [r13+rdx*1+0xa],al
    5a8f:	48 83 c2 0b          	add    rdx,0xb
    5a93:	48 39 ca             	cmp    rdx,rcx
    5a96:	75 d8                	jne    5a70 <_ZNSt6vectorI4MoveSaIS0_EE17_M_realloc_insertIJRKS0_EEEvN9__gnu_cxx17__normal_iteratorIPS0_S2_EEDpOT_+0x100>
    5a98:	49 01 d5             	add    r13,rdx
    5a9b:	4d 85 e4             	test   r12,r12
    5a9e:	75 20                	jne    5ac0 <_ZNSt6vectorI4MoveSaIS0_EE17_M_realloc_insertIJRKS0_EEEvN9__gnu_cxx17__normal_iteratorIPS0_S2_EEDpOT_+0x150>
    5aa0:	49 89 1e             	mov    QWORD PTR [r14],rbx
    5aa3:	4d 89 6e 08          	mov    QWORD PTR [r14+0x8],r13
    5aa7:	4d 89 7e 10          	mov    QWORD PTR [r14+0x10],r15
    5aab:	48 83 c4 28          	add    rsp,0x28
    5aaf:	5b                   	pop    rbx
    5ab0:	5d                   	pop    rbp
    5ab1:	41 5c                	pop    r12
    5ab3:	41 5d                	pop    r13
    5ab5:	41 5e                	pop    r14
    5ab7:	41 5f                	pop    r15
    5ab9:	c3                   	ret    
    5aba:	66 0f 1f 44 00 00    	nop    WORD PTR [rax+rax*1+0x0]
    5ac0:	4c 89 e7             	mov    rdi,r12
    5ac3:	e8 38 c9 ff ff       	call   2400 <_ZdlPv@plt>
    5ac8:	eb d6                	jmp    5aa0 <_ZNSt6vectorI4MoveSaIS0_EE17_M_realloc_insertIJRKS0_EEEvN9__gnu_cxx17__normal_iteratorIPS0_S2_EEDpOT_+0x130>
    5aca:	66 0f 1f 44 00 00    	nop    WORD PTR [rax+rax*1+0x0]
    5ad0:	4d 85 c0             	test   r8,r8
    5ad3:	75 2e                	jne    5b03 <_ZNSt6vectorI4MoveSaIS0_EE17_M_realloc_insertIJRKS0_EEEvN9__gnu_cxx17__normal_iteratorIPS0_S2_EEDpOT_+0x193>
    5ad5:	41 bd 0b 00 00 00    	mov    r13d,0xb
    5adb:	45 31 ff             	xor    r15d,r15d
    5ade:	31 db                	xor    ebx,ebx
    5ae0:	e9 27 ff ff ff       	jmp    5a0c <_ZNSt6vectorI4MoveSaIS0_EE17_M_realloc_insertIJRKS0_EEEvN9__gnu_cxx17__normal_iteratorIPS0_S2_EEDpOT_+0x9c>
    5ae5:	0f 1f 00             	nop    DWORD PTR [rax]
    5ae8:	41 bf 0b 00 00 00    	mov    r15d,0xb
    5aee:	e9 e9 fe ff ff       	jmp    59dc <_ZNSt6vectorI4MoveSaIS0_EE17_M_realloc_insertIJRKS0_EEEvN9__gnu_cxx17__normal_iteratorIPS0_S2_EEDpOT_+0x6c>
    5af3:	0f 1f 44 00 00       	nop    DWORD PTR [rax+rax*1+0x0]
    5af8:	48 39 f5             	cmp    rbp,rsi
    5afb:	0f 85 67 ff ff ff    	jne    5a68 <_ZNSt6vectorI4MoveSaIS0_EE17_M_realloc_insertIJRKS0_EEEvN9__gnu_cxx17__normal_iteratorIPS0_S2_EEDpOT_+0xf8>
    5b01:	eb 98                	jmp    5a9b <_ZNSt6vectorI4MoveSaIS0_EE17_M_realloc_insertIJRKS0_EEEvN9__gnu_cxx17__normal_iteratorIPS0_S2_EEDpOT_+0x12b>
    5b03:	49 39 f8             	cmp    r8,rdi
    5b06:	49 0f 46 f8          	cmovbe rdi,r8
    5b0a:	4c 6b ff 0b          	imul   r15,rdi,0xb
    5b0e:	e9 c9 fe ff ff       	jmp    59dc <_ZNSt6vectorI4MoveSaIS0_EE17_M_realloc_insertIJRKS0_EEEvN9__gnu_cxx17__normal_iteratorIPS0_S2_EEDpOT_+0x6c>
    5b13:	48 8d 3d f5 05 00 00 	lea    rdi,[rip+0x5f5]        # 610f <_IO_stdin_used+0x10f>
    5b1a:	e8 61 c8 ff ff       	call   2380 <_ZSt20__throw_length_errorPKc@plt>
    5b1f:	90                   	nop

0000000000005b20 <_ZNSt7__cxx1112basic_stringIcSt11char_traitsIcESaIcEE12_M_constructIPKcEEvT_S8_St20forward_iterator_tag>:
    5b20:	f3 0f 1e fa          	endbr64 
    5b24:	41 54                	push   r12
    5b26:	49 89 d4             	mov    r12,rdx
    5b29:	55                   	push   rbp
    5b2a:	48 89 f5             	mov    rbp,rsi
    5b2d:	53                   	push   rbx
    5b2e:	48 89 fb             	mov    rbx,rdi
    5b31:	48 83 ec 10          	sub    rsp,0x10
    5b35:	64 48 8b 04 25 28 00 	mov    rax,QWORD PTR fs:0x28
    5b3c:	00 00 
    5b3e:	48 89 44 24 08       	mov    QWORD PTR [rsp+0x8],rax
    5b43:	31 c0                	xor    eax,eax
    5b45:	48 85 d2             	test   rdx,rdx
    5b48:	74 09                	je     5b53 <_ZNSt7__cxx1112basic_stringIcSt11char_traitsIcESaIcEE12_M_constructIPKcEEvT_S8_St20forward_iterator_tag+0x33>
    5b4a:	48 85 f6             	test   rsi,rsi
    5b4d:	0f 84 8c 00 00 00    	je     5bdf <_ZNSt7__cxx1112basic_stringIcSt11char_traitsIcESaIcEE12_M_constructIPKcEEvT_S8_St20forward_iterator_tag+0xbf>
    5b53:	49 29 ec             	sub    r12,rbp
    5b56:	4c 89 24 24          	mov    QWORD PTR [rsp],r12
    5b5a:	49 83 fc 0f          	cmp    r12,0xf
    5b5e:	77 50                	ja     5bb0 <_ZNSt7__cxx1112basic_stringIcSt11char_traitsIcESaIcEE12_M_constructIPKcEEvT_S8_St20forward_iterator_tag+0x90>
    5b60:	48 8b 3b             	mov    rdi,QWORD PTR [rbx]
    5b63:	49 83 fc 01          	cmp    r12,0x1
    5b67:	75 37                	jne    5ba0 <_ZNSt7__cxx1112basic_stringIcSt11char_traitsIcESaIcEE12_M_constructIPKcEEvT_S8_St20forward_iterator_tag+0x80>
    5b69:	0f b6 45 00          	movzx  eax,BYTE PTR [rbp+0x0]
    5b6d:	88 07                	mov    BYTE PTR [rdi],al
    5b6f:	4c 8b 24 24          	mov    r12,QWORD PTR [rsp]
    5b73:	48 8b 3b             	mov    rdi,QWORD PTR [rbx]
    5b76:	4c 89 63 08          	mov    QWORD PTR [rbx+0x8],r12
    5b7a:	42 c6 04 27 00       	mov    BYTE PTR [rdi+r12*1],0x0
    5b7f:	48 8b 44 24 08       	mov    rax,QWORD PTR [rsp+0x8]
    5b84:	64 48 33 04 25 28 00 	xor    rax,QWORD PTR fs:0x28
    5b8b:	00 00 
    5b8d:	75 5c                	jne    5beb <_ZNSt7__cxx1112basic_stringIcSt11char_traitsIcESaIcEE12_M_constructIPKcEEvT_S8_St20forward_iterator_tag+0xcb>
    5b8f:	48 83 c4 10          	add    rsp,0x10
    5b93:	5b                   	pop    rbx
    5b94:	5d                   	pop    rbp
    5b95:	41 5c                	pop    r12
    5b97:	c3                   	ret    
    5b98:	0f 1f 84 00 00 00 00 	nop    DWORD PTR [rax+rax*1+0x0]
    5b9f:	00 
    5ba0:	4d 85 e4             	test   r12,r12
    5ba3:	74 d1                	je     5b76 <_ZNSt7__cxx1112basic_stringIcSt11char_traitsIcESaIcEE12_M_constructIPKcEEvT_S8_St20forward_iterator_tag+0x56>
    5ba5:	eb 24                	jmp    5bcb <_ZNSt7__cxx1112basic_stringIcSt11char_traitsIcESaIcEE12_M_constructIPKcEEvT_S8_St20forward_iterator_tag+0xab>
    5ba7:	66 0f 1f 84 00 00 00 	nop    WORD PTR [rax+rax*1+0x0]
    5bae:	00 00 
    5bb0:	48 89 df             	mov    rdi,rbx
    5bb3:	48 89 e6             	mov    rsi,rsp
    5bb6:	31 d2                	xor    edx,edx
    5bb8:	e8 83 c9 ff ff       	call   2540 <_ZNSt7__cxx1112basic_stringIcSt11char_traitsIcESaIcEE9_M_createERmm@plt>
    5bbd:	48 89 03             	mov    QWORD PTR [rbx],rax
    5bc0:	48 89 c7             	mov    rdi,rax
    5bc3:	48 8b 04 24          	mov    rax,QWORD PTR [rsp]
    5bc7:	48 89 43 10          	mov    QWORD PTR [rbx+0x10],rax
    5bcb:	4c 89 e2             	mov    rdx,r12
    5bce:	48 89 ee             	mov    rsi,rbp
    5bd1:	e8 fa c7 ff ff       	call   23d0 <memcpy@plt>
    5bd6:	4c 8b 24 24          	mov    r12,QWORD PTR [rsp]
    5bda:	48 8b 3b             	mov    rdi,QWORD PTR [rbx]
    5bdd:	eb 97                	jmp    5b76 <_ZNSt7__cxx1112basic_stringIcSt11char_traitsIcESaIcEE12_M_constructIPKcEEvT_S8_St20forward_iterator_tag+0x56>
    5bdf:	48 8d 3d 4a 05 00 00 	lea    rdi,[rip+0x54a]        # 6130 <_IO_stdin_used+0x130>
    5be6:	e8 c5 c7 ff ff       	call   23b0 <_ZSt19__throw_logic_errorPKc@plt>
    5beb:	e8 40 c8 ff ff       	call   2430 <__stack_chk_fail@plt>

0000000000005bf0 <__libc_csu_init>:
    5bf0:	f3 0f 1e fa          	endbr64 
    5bf4:	41 57                	push   r15
    5bf6:	4c 8d 3d bb 2d 00 00 	lea    r15,[rip+0x2dbb]        # 89b8 <__frame_dummy_init_array_entry>
    5bfd:	41 56                	push   r14
    5bff:	49 89 d6             	mov    r14,rdx
    5c02:	41 55                	push   r13
    5c04:	49 89 f5             	mov    r13,rsi
    5c07:	41 54                	push   r12
    5c09:	41 89 fc             	mov    r12d,edi
    5c0c:	55                   	push   rbp
    5c0d:	48 8d 2d bc 2d 00 00 	lea    rbp,[rip+0x2dbc]        # 89d0 <__do_global_dtors_aux_fini_array_entry>
    5c14:	53                   	push   rbx
    5c15:	4c 29 fd             	sub    rbp,r15
    5c18:	48 83 ec 08          	sub    rsp,0x8
    5c1c:	e8 df c3 ff ff       	call   2000 <_init>
    5c21:	48 c1 fd 03          	sar    rbp,0x3
    5c25:	74 1f                	je     5c46 <__libc_csu_init+0x56>
    5c27:	31 db                	xor    ebx,ebx
    5c29:	0f 1f 80 00 00 00 00 	nop    DWORD PTR [rax+0x0]
    5c30:	4c 89 f2             	mov    rdx,r14
    5c33:	4c 89 ee             	mov    rsi,r13
    5c36:	44 89 e7             	mov    edi,r12d
    5c39:	41 ff 14 df          	call   QWORD PTR [r15+rbx*8]
    5c3d:	48 83 c3 01          	add    rbx,0x1
    5c41:	48 39 dd             	cmp    rbp,rbx
    5c44:	75 ea                	jne    5c30 <__libc_csu_init+0x40>
    5c46:	48 83 c4 08          	add    rsp,0x8
    5c4a:	5b                   	pop    rbx
    5c4b:	5d                   	pop    rbp
    5c4c:	41 5c                	pop    r12
    5c4e:	41 5d                	pop    r13
    5c50:	41 5e                	pop    r14
    5c52:	41 5f                	pop    r15
    5c54:	c3                   	ret    
    5c55:	66 66 2e 0f 1f 84 00 	data16 nop WORD PTR cs:[rax+rax*1+0x0]
    5c5c:	00 00 00 00 

0000000000005c60 <__libc_csu_fini>:
    5c60:	f3 0f 1e fa          	endbr64 
    5c64:	c3                   	ret    

Disassembly of section .fini:

0000000000005c68 <_fini>:
    5c68:	f3 0f 1e fa          	endbr64 
    5c6c:	48 83 ec 08          	sub    rsp,0x8
    5c70:	48 83 c4 08          	add    rsp,0x8
    5c74:	c3                   	ret    
